(iann
NN
p0
(dp1
S'nh'
p2
I20
sS'ni'
p3
I46
sS'ci'
p4
(lp5
(lp6
F-0.0005074471043420871
aF-0.00027191519318193184
aF-0.0006560128057563859
aF-0.00036420435992386504
aF0.0026839193489722538
aF0.0005365440510463849
aF-0.0006788643894338756
aF0.0026035843252722487
aF0.005441280228191839
aF-0.0005257897662824629
aF-0.0008476055724933463
aF-0.00044069051958054795
aF0.003876519741030334
aF-0.00036969660425042
aF-0.0006661333100448512
aF-0.00047002372397397617
aF-0.0006762313831952803
aF0.004045535782107946
aF-0.0005312722257126949
aF-0.0004904489641666473
aa(lp7
F-0.0005074471043420871
aF-0.00027191519318193184
aF-0.0006560128057563859
aF-0.00036420435992386504
aF0.0026839193489722538
aF0.0005365440510463849
aF-0.0006788643894338756
aF0.0026035843252722487
aF0.005441280228191839
aF-0.0005257897662824629
aF-0.0008476055724933463
aF-0.00044069051958054795
aF0.003876519741030334
aF-0.00036969660425042
aF-0.0006661333100448512
aF-0.00047002372397397617
aF-0.0006762313831952803
aF0.004045535782107946
aF-0.0005312722257126949
aF-0.0004904489641666473
aa(lp8
F-0.0
aF-0.0
aF-0.0
aF-0.0
aF0.0
aF0.0
aF-0.0
aF0.0
aF0.0
aF-0.0
aF-0.0
aF-0.0
aF0.0
aF-0.0
aF-0.0
aF-0.0
aF-0.0
aF0.0
aF-0.0
aF-0.0
aa(lp9
F-0.0
aF-0.0
aF-0.0
aF-0.0
aF0.0
aF0.0
aF-0.0
aF0.0
aF0.0
aF-0.0
aF-0.0
aF-0.0
aF0.0
aF-0.0
aF-0.0
aF-0.0
aF-0.0
aF0.0
aF-0.0
aF-0.0
aa(lp10
F-0.0
aF-0.0
aF-0.0
aF-0.0
aF0.0
aF0.0
aF-0.0
aF0.0
aF0.0
aF-0.0
aF-0.0
aF-0.0
aF0.0
aF-0.0
aF-0.0
aF-0.0
aF-0.0
aF0.0
aF-0.0
aF-0.0
aa(lp11
F-0.0
aF-0.0
aF-0.0
aF-0.0
aF0.0
aF0.0
aF-0.0
aF0.0
aF0.0
aF-0.0
aF-0.0
aF-0.0
aF0.0
aF-0.0
aF-0.0
aF-0.0
aF-0.0
aF0.0
aF-0.0
aF-0.0
aa(lp12
F-0.0005074471043420871
aF-0.00027191519318193184
aF-0.0006560128057563859
aF-0.00036420435992386504
aF0.0026839193489722538
aF0.0005365440510463849
aF-0.0006788643894338756
aF0.0026035843252722487
aF0.005441280228191839
aF-0.0005257897662824629
aF-0.0008476055724933463
aF-0.00044069051958054795
aF0.003876519741030334
aF-0.00036969660425042
aF-0.0006661333100448512
aF-0.00047002372397397617
aF-0.0006762313831952803
aF0.004045535782107946
aF-0.0005312722257126949
aF-0.0004904489641666473
aa(lp13
F-0.0005074471043420871
aF-0.00027191519318193184
aF-0.0006560128057563859
aF-0.00036420435992386504
aF0.0026839193489722538
aF0.0005365440510463849
aF-0.0006788643894338756
aF0.0026035843252722487
aF0.005441280228191839
aF-0.0005257897662824629
aF-0.0008476055724933463
aF-0.00044069051958054795
aF0.003876519741030334
aF-0.00036969660425042
aF-0.0006661333100448512
aF-0.00047002372397397617
aF-0.0006762313831952803
aF0.004045535782107946
aF-0.0005312722257126949
aF-0.0004904489641666473
aa(lp14
F-0.0005074471043420871
aF-0.00027191519318193184
aF-0.0006560128057563859
aF-0.00036420435992386504
aF0.0026839193489722538
aF0.0005365440510463849
aF-0.0006788643894338756
aF0.0026035843252722487
aF0.005441280228191839
aF-0.0005257897662824629
aF-0.0008476055724933463
aF-0.00044069051958054795
aF0.003876519741030334
aF-0.00036969660425042
aF-0.0006661333100448512
aF-0.00047002372397397617
aF-0.0006762313831952803
aF0.004045535782107946
aF-0.0005312722257126949
aF-0.0004904489641666473
aa(lp15
F-0.0005074471043420871
aF-0.00027191519318193184
aF-0.0006560128057563859
aF-0.00036420435992386504
aF0.0026839193489722538
aF0.0005365440510463849
aF-0.0006788643894338756
aF0.0026035843252722487
aF0.005441280228191839
aF-0.0005257897662824629
aF-0.0008476055724933463
aF-0.00044069051958054795
aF0.003876519741030334
aF-0.00036969660425042
aF-0.0006661333100448512
aF-0.00047002372397397617
aF-0.0006762313831952803
aF0.004045535782107946
aF-0.0005312722257126949
aF-0.0004904489641666473
aa(lp16
F-0.0005074471043420871
aF-0.00027191519318193184
aF-0.0006560128057563859
aF-0.00036420435992386504
aF0.0026839193489722538
aF0.0005365440510463849
aF-0.0006788643894338756
aF0.0026035843252722487
aF0.005441280228191839
aF-0.0005257897662824629
aF-0.0008476055724933463
aF-0.00044069051958054795
aF0.003876519741030334
aF-0.00036969660425042
aF-0.0006661333100448512
aF-0.00047002372397397617
aF-0.0006762313831952803
aF0.004045535782107946
aF-0.0005312722257126949
aF-0.0004904489641666473
aa(lp17
F-0.0
aF-0.0
aF-0.0
aF-0.0
aF0.0
aF0.0
aF-0.0
aF0.0
aF0.0
aF-0.0
aF-0.0
aF-0.0
aF0.0
aF-0.0
aF-0.0
aF-0.0
aF-0.0
aF0.0
aF-0.0
aF-0.0
aa(lp18
F-0.0
aF-0.0
aF-0.0
aF-0.0
aF0.0
aF0.0
aF-0.0
aF0.0
aF0.0
aF-0.0
aF-0.0
aF-0.0
aF0.0
aF-0.0
aF-0.0
aF-0.0
aF-0.0
aF0.0
aF-0.0
aF-0.0
aa(lp19
F-0.0005074471043420871
aF-0.00027191519318193184
aF-0.0006560128057563859
aF-0.00036420435992386504
aF0.0026839193489722538
aF0.0005365440510463849
aF-0.0006788643894338756
aF0.0026035843252722487
aF0.005441280228191839
aF-0.0005257897662824629
aF-0.0008476055724933463
aF-0.00044069051958054795
aF0.003876519741030334
aF-0.00036969660425042
aF-0.0006661333100448512
aF-0.00047002372397397617
aF-0.0006762313831952803
aF0.004045535782107946
aF-0.0005312722257126949
aF-0.0004904489641666473
aa(lp20
F-0.0005074471043420871
aF-0.00027191519318193184
aF-0.0006560128057563859
aF-0.00036420435992386504
aF0.0026839193489722538
aF0.0005365440510463849
aF-0.0006788643894338756
aF0.0026035843252722487
aF0.005441280228191839
aF-0.0005257897662824629
aF-0.0008476055724933463
aF-0.00044069051958054795
aF0.003876519741030334
aF-0.00036969660425042
aF-0.0006661333100448512
aF-0.00047002372397397617
aF-0.0006762313831952803
aF0.004045535782107946
aF-0.0005312722257126949
aF-0.0004904489641666473
aa(lp21
F-0.0005074471043420871
aF-0.00027191519318193184
aF-0.0006560128057563859
aF-0.00036420435992386504
aF0.0026839193489722538
aF0.0005365440510463849
aF-0.0006788643894338756
aF0.0026035843252722487
aF0.005441280228191839
aF-0.0005257897662824629
aF-0.0008476055724933463
aF-0.00044069051958054795
aF0.003876519741030334
aF-0.00036969660425042
aF-0.0006661333100448512
aF-0.00047002372397397617
aF-0.0006762313831952803
aF0.004045535782107946
aF-0.0005312722257126949
aF-0.0004904489641666473
aa(lp22
F-0.0
aF-0.0
aF-0.0
aF-0.0
aF0.0
aF0.0
aF-0.0
aF0.0
aF0.0
aF-0.0
aF-0.0
aF-0.0
aF0.0
aF-0.0
aF-0.0
aF-0.0
aF-0.0
aF0.0
aF-0.0
aF-0.0
aa(lp23
F-0.0
aF-0.0
aF-0.0
aF-0.0
aF0.0
aF0.0
aF-0.0
aF0.0
aF0.0
aF-0.0
aF-0.0
aF-0.0
aF0.0
aF-0.0
aF-0.0
aF-0.0
aF-0.0
aF0.0
aF-0.0
aF-0.0
aa(lp24
F-0.0
aF-0.0
aF-0.0
aF-0.0
aF0.0
aF0.0
aF-0.0
aF0.0
aF0.0
aF-0.0
aF-0.0
aF-0.0
aF0.0
aF-0.0
aF-0.0
aF-0.0
aF-0.0
aF0.0
aF-0.0
aF-0.0
aa(lp25
F-0.0
aF-0.0
aF-0.0
aF-0.0
aF0.0
aF0.0
aF-0.0
aF0.0
aF0.0
aF-0.0
aF-0.0
aF-0.0
aF0.0
aF-0.0
aF-0.0
aF-0.0
aF-0.0
aF0.0
aF-0.0
aF-0.0
aa(lp26
F-0.0
aF-0.0
aF-0.0
aF-0.0
aF0.0
aF0.0
aF-0.0
aF0.0
aF0.0
aF-0.0
aF-0.0
aF-0.0
aF0.0
aF-0.0
aF-0.0
aF-0.0
aF-0.0
aF0.0
aF-0.0
aF-0.0
aa(lp27
F-0.0005074471043420871
aF-0.00027191519318193184
aF-0.0006560128057563859
aF-0.00036420435992386504
aF0.0026839193489722538
aF0.0005365440510463849
aF-0.0006788643894338756
aF0.0026035843252722487
aF0.005441280228191839
aF-0.0005257897662824629
aF-0.0008476055724933463
aF-0.00044069051958054795
aF0.003876519741030334
aF-0.00036969660425042
aF-0.0006661333100448512
aF-0.00047002372397397617
aF-0.0006762313831952803
aF0.004045535782107946
aF-0.0005312722257126949
aF-0.0004904489641666473
aa(lp28
F-0.0
aF-0.0
aF-0.0
aF-0.0
aF0.0
aF0.0
aF-0.0
aF0.0
aF0.0
aF-0.0
aF-0.0
aF-0.0
aF0.0
aF-0.0
aF-0.0
aF-0.0
aF-0.0
aF0.0
aF-0.0
aF-0.0
aa(lp29
F-0.0005074471043420871
aF-0.00027191519318193184
aF-0.0006560128057563859
aF-0.00036420435992386504
aF0.0026839193489722538
aF0.0005365440510463849
aF-0.0006788643894338756
aF0.0026035843252722487
aF0.005441280228191839
aF-0.0005257897662824629
aF-0.0008476055724933463
aF-0.00044069051958054795
aF0.003876519741030334
aF-0.00036969660425042
aF-0.0006661333100448512
aF-0.00047002372397397617
aF-0.0006762313831952803
aF0.004045535782107946
aF-0.0005312722257126949
aF-0.0004904489641666473
aa(lp30
F-0.0005074471043420871
aF-0.00027191519318193184
aF-0.0006560128057563859
aF-0.00036420435992386504
aF0.0026839193489722538
aF0.0005365440510463849
aF-0.0006788643894338756
aF0.0026035843252722487
aF0.005441280228191839
aF-0.0005257897662824629
aF-0.0008476055724933463
aF-0.00044069051958054795
aF0.003876519741030334
aF-0.00036969660425042
aF-0.0006661333100448512
aF-0.00047002372397397617
aF-0.0006762313831952803
aF0.004045535782107946
aF-0.0005312722257126949
aF-0.0004904489641666473
aa(lp31
F-0.0005074471043420871
aF-0.00027191519318193184
aF-0.0006560128057563859
aF-0.00036420435992386504
aF0.0026839193489722538
aF0.0005365440510463849
aF-0.0006788643894338756
aF0.0026035843252722487
aF0.005441280228191839
aF-0.0005257897662824629
aF-0.0008476055724933463
aF-0.00044069051958054795
aF0.003876519741030334
aF-0.00036969660425042
aF-0.0006661333100448512
aF-0.00047002372397397617
aF-0.0006762313831952803
aF0.004045535782107946
aF-0.0005312722257126949
aF-0.0004904489641666473
aa(lp32
F-0.0005074471043420871
aF-0.00027191519318193184
aF-0.0006560128057563859
aF-0.00036420435992386504
aF0.0026839193489722538
aF0.0005365440510463849
aF-0.0006788643894338756
aF0.0026035843252722487
aF0.005441280228191839
aF-0.0005257897662824629
aF-0.0008476055724933463
aF-0.00044069051958054795
aF0.003876519741030334
aF-0.00036969660425042
aF-0.0006661333100448512
aF-0.00047002372397397617
aF-0.0006762313831952803
aF0.004045535782107946
aF-0.0005312722257126949
aF-0.0004904489641666473
aa(lp33
F-0.0005074471043420871
aF-0.00027191519318193184
aF-0.0006560128057563859
aF-0.00036420435992386504
aF0.0026839193489722538
aF0.0005365440510463849
aF-0.0006788643894338756
aF0.0026035843252722487
aF0.005441280228191839
aF-0.0005257897662824629
aF-0.0008476055724933463
aF-0.00044069051958054795
aF0.003876519741030334
aF-0.00036969660425042
aF-0.0006661333100448512
aF-0.00047002372397397617
aF-0.0006762313831952803
aF0.004045535782107946
aF-0.0005312722257126949
aF-0.0004904489641666473
aa(lp34
F-0.0005074471043420871
aF-0.00027191519318193184
aF-0.0006560128057563859
aF-0.00036420435992386504
aF0.0026839193489722538
aF0.0005365440510463849
aF-0.0006788643894338756
aF0.0026035843252722487
aF0.005441280228191839
aF-0.0005257897662824629
aF-0.0008476055724933463
aF-0.00044069051958054795
aF0.003876519741030334
aF-0.00036969660425042
aF-0.0006661333100448512
aF-0.00047002372397397617
aF-0.0006762313831952803
aF0.004045535782107946
aF-0.0005312722257126949
aF-0.0004904489641666473
aa(lp35
F-0.0
aF-0.0
aF-0.0
aF-0.0
aF0.0
aF0.0
aF-0.0
aF0.0
aF0.0
aF-0.0
aF-0.0
aF-0.0
aF0.0
aF-0.0
aF-0.0
aF-0.0
aF-0.0
aF0.0
aF-0.0
aF-0.0
aa(lp36
F-0.0005074471043420871
aF-0.00027191519318193184
aF-0.0006560128057563859
aF-0.00036420435992386504
aF0.0026839193489722538
aF0.0005365440510463849
aF-0.0006788643894338756
aF0.0026035843252722487
aF0.005441280228191839
aF-0.0005257897662824629
aF-0.0008476055724933463
aF-0.00044069051958054795
aF0.003876519741030334
aF-0.00036969660425042
aF-0.0006661333100448512
aF-0.00047002372397397617
aF-0.0006762313831952803
aF0.004045535782107946
aF-0.0005312722257126949
aF-0.0004904489641666473
aa(lp37
F-0.0
aF-0.0
aF-0.0
aF-0.0
aF0.0
aF0.0
aF-0.0
aF0.0
aF0.0
aF-0.0
aF-0.0
aF-0.0
aF0.0
aF-0.0
aF-0.0
aF-0.0
aF-0.0
aF0.0
aF-0.0
aF-0.0
aa(lp38
F-0.0
aF-0.0
aF-0.0
aF-0.0
aF0.0
aF0.0
aF-0.0
aF0.0
aF0.0
aF-0.0
aF-0.0
aF-0.0
aF0.0
aF-0.0
aF-0.0
aF-0.0
aF-0.0
aF0.0
aF-0.0
aF-0.0
aa(lp39
F-0.0005074471043420871
aF-0.00027191519318193184
aF-0.0006560128057563859
aF-0.00036420435992386504
aF0.0026839193489722538
aF0.0005365440510463849
aF-0.0006788643894338756
aF0.0026035843252722487
aF0.005441280228191839
aF-0.0005257897662824629
aF-0.0008476055724933463
aF-0.00044069051958054795
aF0.003876519741030334
aF-0.00036969660425042
aF-0.0006661333100448512
aF-0.00047002372397397617
aF-0.0006762313831952803
aF0.004045535782107946
aF-0.0005312722257126949
aF-0.0004904489641666473
aa(lp40
F-0.0
aF-0.0
aF-0.0
aF-0.0
aF0.0
aF0.0
aF-0.0
aF0.0
aF0.0
aF-0.0
aF-0.0
aF-0.0
aF0.0
aF-0.0
aF-0.0
aF-0.0
aF-0.0
aF0.0
aF-0.0
aF-0.0
aa(lp41
F-0.0
aF-0.0
aF-0.0
aF-0.0
aF0.0
aF0.0
aF-0.0
aF0.0
aF0.0
aF-0.0
aF-0.0
aF-0.0
aF0.0
aF-0.0
aF-0.0
aF-0.0
aF-0.0
aF0.0
aF-0.0
aF-0.0
aa(lp42
F-0.0
aF-0.0
aF-0.0
aF-0.0
aF0.0
aF0.0
aF-0.0
aF0.0
aF0.0
aF-0.0
aF-0.0
aF-0.0
aF0.0
aF-0.0
aF-0.0
aF-0.0
aF-0.0
aF0.0
aF-0.0
aF-0.0
aa(lp43
F-0.0005074471043420871
aF-0.00027191519318193184
aF-0.0006560128057563859
aF-0.00036420435992386504
aF0.0026839193489722538
aF0.0005365440510463849
aF-0.0006788643894338756
aF0.0026035843252722487
aF0.005441280228191839
aF-0.0005257897662824629
aF-0.0008476055724933463
aF-0.00044069051958054795
aF0.003876519741030334
aF-0.00036969660425042
aF-0.0006661333100448512
aF-0.00047002372397397617
aF-0.0006762313831952803
aF0.004045535782107946
aF-0.0005312722257126949
aF-0.0004904489641666473
aa(lp44
F-0.0005074471043420871
aF-0.00027191519318193184
aF-0.0006560128057563859
aF-0.00036420435992386504
aF0.0026839193489722538
aF0.0005365440510463849
aF-0.0006788643894338756
aF0.0026035843252722487
aF0.005441280228191839
aF-0.0005257897662824629
aF-0.0008476055724933463
aF-0.00044069051958054795
aF0.003876519741030334
aF-0.00036969660425042
aF-0.0006661333100448512
aF-0.00047002372397397617
aF-0.0006762313831952803
aF0.004045535782107946
aF-0.0005312722257126949
aF-0.0004904489641666473
aa(lp45
F-0.0005074471043420871
aF-0.00027191519318193184
aF-0.0006560128057563859
aF-0.00036420435992386504
aF0.0026839193489722538
aF0.0005365440510463849
aF-0.0006788643894338756
aF0.0026035843252722487
aF0.005441280228191839
aF-0.0005257897662824629
aF-0.0008476055724933463
aF-0.00044069051958054795
aF0.003876519741030334
aF-0.00036969660425042
aF-0.0006661333100448512
aF-0.00047002372397397617
aF-0.0006762313831952803
aF0.004045535782107946
aF-0.0005312722257126949
aF-0.0004904489641666473
aa(lp46
F-0.0010148942086841742
aF-0.0005438303863638637
aF-0.0013120256115127717
aF-0.0007284087198477301
aF0.0053678386979445075
aF0.0010730881020927698
aF-0.0013577287788677512
aF0.0052071686505444975
aF0.010882560456383679
aF-0.0010515795325649257
aF-0.0016952111449866926
aF-0.0008813810391610959
aF0.007753039482060668
aF-0.00073939320850084
aF-0.0013322666200897024
aF-0.0009400474479479523
aF-0.0013524627663905606
aF0.008091071564215893
aF-0.0010625444514253898
aF-0.0009808979283332947
aa(lp47
F-0.002537235521710436
aF-0.0013595759659096591
aF-0.003280064028781929
aF-0.001821021799619325
aF0.013419596744861269
aF0.0026827202552319246
aF-0.003394321947169378
aF0.013017921626361244
aF0.027206401140959197
aF-0.0026289488314123143
aF-0.004238027862466732
aF-0.0022034525979027397
aF0.01938259870515167
aF-0.0018484830212521
aF-0.003330666550224256
aF-0.0023501186198698807
aF-0.0033811569159764017
aF0.020227678910539733
aF-0.0026563611285634744
aF-0.0024522448208332366
aa(lp48
F-0.0005074471043420871
aF-0.00027191519318193184
aF-0.0006560128057563859
aF-0.00036420435992386504
aF0.0026839193489722538
aF0.0005365440510463849
aF-0.0006788643894338756
aF0.0026035843252722487
aF0.005441280228191839
aF-0.0005257897662824629
aF-0.0008476055724933463
aF-0.00044069051958054795
aF0.003876519741030334
aF-0.00036969660425042
aF-0.0006661333100448512
aF-0.00047002372397397617
aF-0.0006762313831952803
aF0.004045535782107946
aF-0.0005312722257126949
aF-0.0004904489641666473
aa(lp49
F-0.002537235521710436
aF-0.0013595759659096591
aF-0.003280064028781929
aF-0.001821021799619325
aF0.013419596744861269
aF0.0026827202552319246
aF-0.003394321947169378
aF0.013017921626361244
aF0.027206401140959197
aF-0.0026289488314123143
aF-0.004238027862466732
aF-0.0022034525979027397
aF0.01938259870515167
aF-0.0018484830212521
aF-0.003330666550224256
aF-0.0023501186198698807
aF-0.0033811569159764017
aF0.020227678910539733
aF-0.0026563611285634744
aF-0.0024522448208332366
aa(lp50
F-0.007104259460789219
aF-0.003806812704547046
aF-0.009184179280589401
aF-0.005098861038934111
aF0.03757487088561155
aF0.007511616714649389
aF-0.00950410145207426
aF0.03645018055381148
aF0.07617792319468575
aF-0.00736105672795448
aF-0.011866478014906848
aF-0.006169667274127671
aF0.05427127637442468
aF-0.00517575245950588
aF-0.009325866340627917
aF-0.006580332135635666
aF-0.009467239364733924
aF0.05663750094951125
aF-0.007437811159977729
aF-0.006866285498333063
aa(lp51
F-0.0005074471043420871
aF-0.00027191519318193184
aF-0.0006560128057563859
aF-0.00036420435992386504
aF0.0026839193489722538
aF0.0005365440510463849
aF-0.0006788643894338756
aF0.0026035843252722487
aF0.005441280228191839
aF-0.0005257897662824629
aF-0.0008476055724933463
aF-0.00044069051958054795
aF0.003876519741030334
aF-0.00036969660425042
aF-0.0006661333100448512
aF-0.00047002372397397617
aF-0.0006762313831952803
aF0.004045535782107946
aF-0.0005312722257126949
aF-0.0004904489641666473
aasS'co'
p52
(lp53
(lp54
F0.0007945979206392874
aa(lp55
F0.0008717616876564268
aa(lp56
F0.0009352269776825448
aa(lp57
F0.0008169666778430779
aa(lp58
F0.012853083169761534
aa(lp59
F0.006736584876977857
aa(lp60
F0.0009421117056681801
aa(lp61
F0.028789262625126162
aa(lp62
F0.009868654800837429
aa(lp63
F0.0007598017447392434
aa(lp64
F0.0011953254822338244
aa(lp65
F0.0007426661377383751
aa(lp66
F0.012270942043801546
aa(lp67
F0.0007846071644099999
aa(lp68
F0.0009566128546560521
aa(lp69
F0.0007570472976769864
aa(lp70
F0.0009411703868574912
aa(lp71
F0.02388961338095492
aa(lp72
F0.0007588980720541966
aa(lp73
F0.0007612575273280023
aasS'no'
p74
I1
sS'ai'
p75
(lp76
I1
aI1
aI0
aI0
aI0
aI0
aI1
aI1
aI1
aI1
aI1
aI0
aI0
aI1
aI1
aI1
aI0
aI0
aI0
aI0
aI0
aI1
aI0
aI1
aI1
aI1
aI1
aI1
aI1
aI0
aI1
aI0
aI0
aI1
aI0
aI0
aI0
aI1
aI1
aI1
aI2
aI5
aI1
aI5
aI14
aF1.0
asS'ah'
p77
(lp78
F0.023919132988690812
aF0.02624193091862546
aF0.028152374770629533
aF0.02459248143883367
aF0.38690587738372856
aF0.20278591898704973
aF0.02835962012076446
aF0.866619687127698
aF0.29706806482805875
aF0.022871692091562094
aF0.035981907870233344
aF0.022355872892883655
aF0.36938215796747276
aF0.023618389404169906
aF0.028796136379013248
aF0.022788777218667098
aF0.02833128436851443
aF0.719129542961474
aF0.02284448956992135
aF0.02291551432723461
asS'ao'
p79
(lp80
F0.7956687214681599
asS'wo'
p81
(lp82
(lp83
F-0.6542310946260227
aa(lp84
F-0.3202768326254009
aa(lp85
F-0.7217203908343078
aa(lp86
F-0.4569996647129861
aa(lp87
F0.3412350838079484
aa(lp88
F0.10024261434582177
aa(lp89
F-0.7415620330618501
aa(lp90
F0.6794701889466503
aa(lp91
F0.7848794813997045
aa(lp92
F-0.7081690624215267
aa(lp93
F-0.7355075785852316
aa(lp94
F-0.6069217745231426
aa(lp95
F0.5015675381860425
aa(lp96
F-0.48254552746510276
aa(lp97
F-0.7169445445343382
aa(lp98
F-0.6353052502693626
aa(lp99
F-0.7394030003819233
aa(lp100
F0.6041161104853188
aa(lp101
F-0.716385809215155
aa(lp102
F-0.6593333345186362
aasS'wi'
p103
(lp104
(lp105
F-0.11847399766818614
aF-0.02123319526789372
aF-0.1443945683485965
aF-0.0628772050320252
aF0.056055165520338755
aF0.006019016107407433
aF-0.16011488474214894
aF0.30079540028712104
aF0.07332482699830663
aF-0.14970779872561468
aF-0.1580574852830053
aF-0.11350156160700545
aF0.07837834927784305
aF-0.06546694951660316
aF-0.15808608610112976
aF-0.11324084554349127
aF-0.16373258505684982
aF0.2501034050511216
aF-0.1477063551002142
aF-0.1357780531298328
aa(lp106
F-0.16080172758598282
aF-0.04786306750080702
aF-0.20759572808619253
aF-0.06880025077093928
aF0.1390752003882093
aF0.038862886892269535
aF-0.21175854959988194
aF0.4883930082120266
aF0.14330415691271353
aF-0.17759698498285117
aF-0.22720275424732947
aF-0.12762454218882577
aF0.1483939819347955
aF-0.08197060183777884
aF-0.19580553655254704
aF-0.15207143950884447
aF-0.20428477635021447
aF0.4045859406182773
aF-0.17996318209379203
aF-0.15147226138443884
aa(lp107
F-0.1613560598418095
aF-0.024334367588276184
aF-0.17729076960470735
aF-0.0755992490976714
aF0.055675750926917005
aF0.015755356332374362
aF-0.19118765085013917
aF0.3189293477590131
aF0.027007485665636682
aF-0.1715864619460189
aF-0.200178933038534
aF-0.11808094749532323
aF0.048483520425049116
aF-0.08386447389352056
aF-0.19129308725117108
aF-0.15126830947711328
aF-0.19562474171955999
aF0.1337699099856615
aF-0.1582709983700416
aF-0.16474507663021978
aa(lp108
F-0.18131204302188766
aF-0.08226948906592636
aF-0.18611612796994595
aF-0.12503359427045518
aF0.14232571177134978
aF0.027949411790066485
aF-0.20012232036851743
aF0.18953680995670766
aF0.3653577861106268
aF-0.17930887860637182
aF-0.18054128968105942
aF-0.16347426107937377
aF0.2328733726847758
aF-0.1228788385888548
aF-0.1764946507148198
aF-0.16064000389492158
aF-0.186121363007581
aF0.26600262070346753
aF-0.19889270725080713
aF-0.17619581274390597
aa(lp109
F0.31119117625427806
aF0.03862459165256229
aF0.4282952238376674
aF0.11471113052024294
aF-0.23638131804301174
aF-0.10072991582876649
aF0.4554869933010508
aF-0.7435605076198082
aF-0.42407012116095383
aF0.40036049212062913
aF0.46183621061114094
aF0.25362600550171693
aF-0.306649826344634
aF0.14075191108830662
aF0.42410642319293906
aF0.3015778231762214
aF0.4383258633096961
aF-0.6431233561564437
aF0.40632087040851356
aF0.32190051231355715
aa(lp110
F0.2128856695259488
aF-0.0015998675400721652
aF0.2876160643638283
aF0.06225116711924013
aF-0.1703963789984545
aF-0.07504699482898565
aF0.3105069569584158
aF-0.6861177391656997
aF-0.30757399367786376
aF0.2451025723124944
aF0.31821248860646245
aF0.15263054258000894
aF-0.22924059238573674
aF0.07989975226441251
aF0.2836957116113692
aF0.1890620850740786
aF0.2964491034186297
aF-0.4892845995891901
aF0.26939649520422676
aF0.2135453906725805
aa(lp111
F-0.13590682082226205
aF-0.03945002837712834
aF-0.18571400613481942
aF-0.05776785392318762
aF0.047030306020096786
aF0.013609878402525265
aF-0.19192064616444982
aF0.13596004079620672
aF0.08848503244463098
aF-0.1555826429634642
aF-0.18853960917621138
aF-0.11469888432325971
aF0.07381241292552182
aF-0.07715015394634608
aF-0.17510036164276882
aF-0.13141634985609926
aF-0.17790914604820907
aF0.03476730776934366
aF-0.1676301013694721
aF-0.1405707365774741
aa(lp112
F-0.2017276835913895
aF-0.05526269606167731
aF-0.27616916782214856
aF-0.10661241238569323
aF0.08873538080154979
aF0.01091108832065528
aF-0.2814548933728438
aF0.24007508067785813
aF0.1538239376453675
aF-0.23344154862937144
aF-0.3003119087696616
aF-0.1839282555595128
aF0.11443863293024172
aF-0.11034381676033367
aF-0.2543046118201007
aF-0.1881878152228185
aF-0.28299800288214016
aF0.21677181035547083
aF-0.2535755196902343
aF-0.21536537760345645
aa(lp113
F-0.11486497906770975
aF0.0031704464242513796
aF-0.1751753933989872
aF-0.013108006704532386
aF0.018043037931998893
aF-0.011848455348965843
aF-0.19771972437728974
aF0.2217659559611293
aF-0.015928075344647318
aF-0.14822472019706973
aF-0.20923548447481838
aF-0.08145831540054478
aF0.01721858359216885
aF-0.02141100607572903
aF-0.18606371312760367
aF-0.10158201519169954
aF-0.1887407715415936
aF0.11699592450001862
aF-0.15030887596828588
aF-0.1126532643366545
aa(lp114
F0.007447852652524037
aF-0.03033615400083687
aF0.0602545378624529
aF-0.028485657564142845
aF-0.04561520707460729
aF-0.027141674530631335
aF0.06450758830512508
aF-0.22026880521575423
aF-0.06752665611038261
aF0.02929133964179489
aF0.077764262325066
aF-0.0036400323908381115
aF-0.051576634149895884
aF-0.01649891496880414
aF0.042957529543875425
aF3.949565589456781e-05
aF0.06094657662065477
aF-0.22308554432524624
aF0.04860284719734853
aF0.01537842552160447
aa(lp115
F0.04133275911231476
aF-0.0013033388370366388
aF0.0009630649248648522
aF0.03563229745598593
aF-0.06859698698507406
aF-0.046796369649849304
aF-0.008845597105477247
aF-0.0024543860810820168
aF-0.17720351275153245
aF0.02661212212085101
aF-0.011115060183829779
aF0.038934995155611156
aF-0.1014717196440981
aF0.03839796943206486
aF0.006914110750105758
aF0.03758843089915895
aF-4.550617389907589e-05
aF-0.09198932627490632
aF0.03236509674317948
aF0.0388876596304129
aa(lp116
F-0.045771113299245735
aF-0.041348937360364546
aF-0.06173486102817066
aF-0.030991768856585344
aF-0.01327776328920622
aF-0.017197468831811412
aF-0.0739593198894682
aF-0.03195082698256035
aF0.07182736110606788
aF-0.04783408051146808
aF-0.0971310868389221
aF-0.04311180110605858
aF0.012607414611205571
aF-0.04576398994363606
aF-0.06483254790884183
aF-0.04786667589350991
aF-0.08000225066664583
aF-0.1398963036179927
aF-0.06853205639442479
aF-0.044862113328669476
aa(lp117
F-0.15951445471343376
aF-0.05733954561510334
aF-0.15853452752973105
aF-0.10121048454264173
aF0.12618404406574624
aF0.03163313103401492
aF-0.16534943953632017
aF0.3193083831869018
aF0.22600229580132464
aF-0.16125372868158735
aF-0.18508117462219717
aF-0.13211443356653468
aF0.17135090651270082
aF-0.09546133024663976
aF-0.1792119248811113
aF-0.1492581958952296
aF-0.16487328824773698
aF0.3464103143821428
aF-0.17082841103733792
aF-0.1606592218696467
aa(lp118
F-0.12796944609969432
aF-0.04029851403345982
aF-0.1544478345944693
aF-0.08583730455838254
aF0.08362940627316308
aF0.014660420354791197
aF-0.14629369224407596
aF0.35341232617645846
aF0.10970096911994588
aF-0.15186516006567674
aF-0.16494250156489149
aF-0.12655514053861425
aF0.09043535245185795
aF-0.07652783832598038
aF-0.14992509105573085
aF-0.12229130941621547
aF-0.14694176344205506
aF0.25031718258084823
aF-0.14754319024946128
aF-0.12519801528403182
aa(lp119
F-0.019606168500517624
aF-0.00048732975813050965
aF-0.05407943289730984
aF0.0007033561338274175
aF-0.024836753123181454
aF-0.021013708302434993
aF-0.0498841866437311
aF0.04978668022865115
aF-0.08597117358913199
aF-0.016353483227719925
aF-0.05870142691886931
aF-0.02199899511311531
aF-0.03978266093896771
aF0.0059736122505173244
aF-0.04609260963742947
aF-0.015364900314559183
aF-0.037911239331340746
aF-0.08636342869907153
aF-0.03469725485782832
aF-0.029167833581356925
aa(lp120
F-0.2504088697451405
aF-0.03782815375118333
aF-0.37930985376095494
aF-0.10262218498392114
aF0.229249564151878
aF0.06710803338212291
aF-0.42257528950023227
aF0.5668004363630533
aF0.34411939610386527
aF-0.31182463720010495
aF-0.42802444842784804
aF-0.2111325994476684
aF0.28523658190936524
aF-0.11181697362452422
aF-0.3700347854461674
aF-0.22714636841360436
aF-0.39817478027910064
aF0.45931875570658653
aF-0.31885276087049313
aF-0.25236931329404066
aa(lp121
F-0.09414729414791188
aF-0.024178827568869174
aF-0.1311615742468966
aF-0.05293428839952468
aF-0.055052257332528845
aF-0.01849654887597738
aF-0.14552525903828073
aF0.06736159034384218
aF-0.09860822166473217
aF-0.0993183895459901
aF-0.14224857946597036
aF-0.0743494507682515
aF-0.07122099074012783
aF-0.0553976780122448
aF-0.1294674107065061
aF-0.09210471734327173
aF-0.13848158567599406
aF-0.11343706480130474
aF-0.10907143733971605
aF-0.10026268664932907
aa(lp122
F0.13331221776046112
aF0.027242796001529866
aF0.18017310587422278
aF0.0604582516842197
aF-0.15647235812605656
aF-0.0632195751141587
aF0.20507603458934714
aF-0.4196971799277477
aF-0.2535244802337401
aF0.15760132283602699
aF0.21227712753081973
aF0.10901458507662051
aF-0.2007631894200874
aF0.06472084083029772
aF0.1688269172227629
aF0.13137110153497852
aF0.19680063046104707
aF-0.39076412811185857
aF0.16755135772122928
aF0.137046667815937
aa(lp123
F-0.130948121309458
aF-0.047446887101070416
aF-0.1566583056586002
aF-0.09166588030623958
aF0.143922340685577
aF0.03638684238863055
aF-0.1371931043218158
aF0.24579476881461126
aF0.28132571768567427
aF-0.13890921588581243
aF-0.14394651579382384
aF-0.12956498992364782
aF0.20300712881452398
aF-0.09189541740483642
aF-0.14210575624449343
aF-0.13616031171968893
aF-0.13846222574974773
aF0.35934691508372557
aF-0.13629247084549578
aF-0.12793856247160615
aa(lp124
F0.29213910722960984
aF0.0034338335024775087
aF0.44690167132415465
aF0.0824437534625089
aF-0.3195983891916103
aF-0.12487945898272272
aF0.48332479788972427
aF-0.7576448148666676
aF-0.42992360419004516
aF0.3697225716212676
aF0.5129879369336346
aF0.22064092302478824
aF-0.3731671851675633
aF0.09398628824219891
aF0.41974544611511705
aF0.246819548521492
aF0.4657843500432631
aF-0.7275051166633353
aF0.3805844836111278
aF0.29640520197333553
aa(lp125
F0.19165523281153823
aF0.01697827887940781
aF0.2507026203344374
aF0.04450723896862918
aF-0.10578463852115325
aF-0.043343426322570794
aF0.28725182318226733
aF-0.24549346747062492
aF-0.1798874737220749
aF0.23236930177722892
aF0.28163931949227006
aF0.14838055280330978
aF-0.13328919335645914
aF0.07131430581077565
aF0.24642883500075635
aF0.16520068813844735
aF0.27831676754980195
aF-0.18532824527114936
aF0.23900958980085557
aF0.19010931914580728
aa(lp126
F-0.1609529915351119
aF-0.04408716231263512
aF-0.17302395343623522
aF-0.087021731939074
aF0.09845259657132727
aF0.025084619219581113
aF-0.1910423501898031
aF0.23389094098884194
aF0.17908928814733466
aF-0.17502915864061086
aF-0.17801201081181262
aF-0.12908281864529159
aF0.14218565102178615
aF-0.09695751531730833
aF-0.18086709606970003
aF-0.15426979324124526
aF-0.18028564463495034
aF0.14795848958739224
aF-0.15907543567047228
aF-0.16155967266471993
aa(lp127
F0.23066960912607573
aF-0.006450035590823625
aF0.37156904349424896
aF0.051548078202630215
aF-0.20385509473526545
aF-0.08499213184273728
aF0.4282645366303957
aF-0.6593007921661219
aF-0.28674913809737507
aF0.3087494755913167
aF0.433232866735088
aF0.18328275140634426
aF-0.23261638890290143
aF0.05216315665428587
aF0.3713274007751316
aF0.1981861209634149
aF0.4097253162107482
aF-0.5371488671483529
aF0.32539647825790374
aF0.2518133521231999
aa(lp128
F0.10974022385923342
aF-0.028033493408079188
aF0.2019828220315878
aF-0.006957153037947075
aF-0.19272051229839543
aF-0.07523793075815328
aF0.24922512600337074
aF-0.7545217054960975
aF-0.2751809271724122
aF0.15078439273038263
aF0.25080161349100333
aF0.07072796075187303
aF-0.22417730181978657
aF-0.0027307203679658304
aF0.19961455585802815
aF0.09194661650947139
aF0.22067099079065158
aF-0.6596501112124402
aF0.16498901955976486
aF0.1206147924306505
aa(lp129
F0.018711461958301832
aF-0.01608452592708809
aF0.02656042971412516
aF-0.0008606475438201082
aF-0.055366883888010504
aF-0.020833156059142575
aF0.01659144097367721
aF-0.15031227617598564
aF-0.12580226625354904
aF0.027352213041881592
aF0.02116301162160943
aF0.01711197465099501
aF-0.06388864238765116
aF-0.004593173731675305
aF0.03301960667167002
aF0.018669987294568903
aF0.0304077340674284
aF-0.15065393636565821
aF0.008934174091659423
aF0.013932688101182629
aa(lp130
F-0.06378233786149393
aF-0.048166352273461464
aF-0.07638031926404364
aF-0.05784264376249435
aF-0.048737216159460105
aF-0.02691157180998068
aF-0.08059087977793145
aF-0.09745122544754874
aF-0.006972816328977332
aF-0.0748482909336841
aF-0.08235060690640558
aF-0.053981054166781804
aF-0.03257049697505798
aF-0.057556700650863504
aF-0.06770655980822433
aF-0.056625233476029775
aF-0.08661744481757262
aF-0.17511620824395244
aF-0.06756303195961035
aF-0.06623395014092921
aa(lp131
F-0.03504796368130903
aF-0.045757297425221555
aF0.004783946193713965
aF-0.03618915057097854
aF-0.07469134628222056
aF-0.023951279450766774
aF0.01706516200469952
aF-0.07036137946683689
aF-0.07730332090916157
aF-0.027720748479868225
aF0.026963520168260237
aF-0.04277734030111364
aF-0.08836003243211482
aF-0.0520156031586804
aF0.005426426825838029
aF-0.038891442145267185
aF0.0006054146792192712
aF-0.16278901099057094
aF-0.013112669530907525
aF-0.022042064058235288
aa(lp132
F0.03793700775632063
aF-0.0031041360752762843
aF0.07138061520137037
aF0.014374444918954291
aF-0.09820048146961764
aF-0.03347935337762049
aF0.10074835762383623
aF-0.23054468256428717
aF-0.2035869042597925
aF0.06086407696003694
aF0.08983315715053951
aF0.02109969466788743
aF-0.1366269064781502
aF0.0045900532941041
aF0.06642280089760376
aF0.037518107979206974
aF0.08354174136170583
aF-0.35120218810921133
aF0.06616363702424118
aF0.03898482559213604
aa(lp133
F-0.02663365181539849
aF-0.044193508011977724
aF0.013690057661388514
aF-0.038921459654517085
aF-0.0387048856619645
aF-0.03341807866981322
aF0.014416254741716573
aF-0.1726107518242273
aF-0.04779214121085782
aF-0.011999542580510336
aF0.028897803737101328
aF-0.03193200683982487
aF-0.03243860110031815
aF-0.049336453368565965
aF-0.004248944295144709
aF-0.021617078135797864
aF0.0059607072137642
aF-0.12662373868673396
aF-0.004750663034677524
aF-0.025405211117038338
aa(lp134
F-0.0922229903263564
aF-0.03404159574245994
aF-0.10234377744038978
aF-0.05783488893276893
aF-0.05546568682603543
aF-0.02033776552932829
aF-0.0959852208937902
aF-0.08154822247643186
aF-0.016802522530417717
aF-0.11580155235320036
aF-0.11465458205619493
aF-0.08757169876515028
aF-0.043963346482281646
aF-0.06296423491212885
aF-0.10395174896549321
aF-0.08208055768062823
aF-0.12067805647117451
aF-0.09998949409756176
aF-0.09824496139838008
aF-0.09399700397426315
aa(lp135
F-0.22183816275111018
aF-0.036788457587821934
aF-0.2762799061525448
aF-0.0934463328726194
aF0.2702891174261396
aF0.07766222958651876
aF-0.3015055605490474
aF0.5260690315110645
aF0.35047262708968024
aF-0.2526698453905741
aF-0.3110377209220386
aF-0.18513435806576065
aF0.31394298179220587
aF-0.09501484892776196
aF-0.2680934433698823
aF-0.20117083172488406
aF-0.2868063503813565
aF0.5393479903902055
aF-0.26424280922844623
aF-0.22878071895157498
aa(lp136
F-0.03148952444779219
aF-0.011293755122180166
aF-0.012908322996399473
aF-0.012144101026329564
aF0.017367388984715317
aF0.010346349216342607
aF-0.0041051080566016805
aF-0.06887823612365343
aF-0.04530667510876474
aF-0.019268272886278942
aF0.008350274515994564
aF-0.02369445318390209
aF-0.007252531453168624
aF-0.02081192310573035
aF-0.01030272719888957
aF-0.020986067653065425
aF-0.0076917388982213454
aF-0.014050025379635575
aF-0.01895441849466893
aF-0.024317701359517937
aa(lp137
F0.14121520871115067
aF0.0108013795338978
aF0.19290905968421598
aF0.042553810189545994
aF-0.14773901071525428
aF-0.05801332124338716
aF0.21857198451263746
aF-0.4234248975130398
aF-0.18045698508263522
aF0.1761502587187579
aF0.20586984648720008
aF0.10928695719036058
aF-0.17229337007849121
aF0.054492845930098496
aF0.19448694346064002
aF0.11423068175350624
aF0.20511881495922768
aF-0.3485282013202891
aF0.17351249341284422
aF0.1299625898013429
aa(lp138
F-0.1766074071784404
aF-0.03649969623069271
aF-0.2655624004742905
aF-0.053430480475527765
aF0.17861376827019035
aF0.04076280503309371
aF-0.2856340116629604
aF0.48017473676000577
aF0.2919768746356751
aF-0.21410364441583177
aF-0.2881421329313014
aF-0.12972876242955192
aF0.21440604470062094
aF-0.06751597644713295
aF-0.24606454285923565
aF-0.15110139690942667
aF-0.2651620919358866
aF0.5110119468329073
aF-0.23275385254401146
aF-0.17137357451089597
aa(lp139
F-0.020899577095395385
aF0.008697072076565164
aF-0.045642005204482486
aF-0.0012401065619466333
aF-0.04339808876182158
aF-0.030551958946189325
aF-0.045082282811387264
aF0.08899470622754525
aF-0.11172317140852003
aF-0.038969756105231367
aF-0.043869977235948175
aF-0.012896555538835681
aF-0.05694254410971905
aF0.01019478268171523
aF-0.04746263029911314
aF-0.02363129412705084
aF-0.04504510354163888
aF-0.06558425306538934
aF-0.024542263420532374
aF-0.018268514494458266
aa(lp140
F0.1543866511330881
aF-0.017531606801683218
aF0.250243326690699
aF0.008863139458947634
aF-0.16319195400952874
aF-0.05284500998471998
aF0.26414395730612655
aF-0.6031579375391443
aF-0.1979327417796379
aF0.1884049451924236
aF0.2758064510533807
aF0.09434503105356867
aF-0.19331712225562322
aF0.027584882155042702
aF0.2263321958003363
aF0.1214085578888907
aF0.2585478443043267
aF-0.4999374353886617
aF0.2074874640153004
aF0.1586354170226371
aa(lp141
F-0.06296974628612295
aF-0.02399980124249291
aF-0.06852887023555491
aF-0.03853230252574888
aF0.038280038393261946
aF0.0358168744692417
aF-0.08222202258517677
aF0.13456800848571235
aF0.08487092978164644
aF-0.07132360654184136
aF-0.0716063349205548
aF-0.04363939718406349
aF0.05953886393701178
aF-0.041961620506876796
aF-0.06828524864181611
aF-0.045411673958193455
aF-0.07204704225170633
aF0.04192965971427135
aF-0.05656007782719503
aF-0.053321452001889764
aa(lp142
F0.04344918844587716
aF0.0022597994998108293
aF0.03344866755250999
aF0.02331755796853298
aF-0.007469601505315336
aF-0.024233520878687343
aF0.023332406238079015
aF0.004307666586254717
aF-0.03655829529537904
aF0.047837667701447636
aF0.028793435617906187
aF0.03818828136137917
aF-0.0113099412615464
aF0.02167116018778456
aF0.040844726299016997
aF0.03811428584703712
aF0.0422139609812231
aF0.04482438072112836
aF0.03372048676203994
aF0.0459389276392818
aa(lp143
F-0.02556142999541686
aF-0.0003488141352496426
aF-0.051428125474216255
aF0.013015327738617485
aF-0.10941627412931429
aF-0.04853497079267576
aF-0.055982881320631714
aF0.34409679970941204
aF-0.2583439214667701
aF-0.036894712323753596
aF-0.05343778811118611
aF-0.00675651482846595
aF-0.1594086196598745
aF0.008788225916437154
aF-0.04395949061062919
aF-0.009319498396683796
aF-0.060032758815128824
aF0.22521462941166637
aF-0.0371493212381064
aF-0.028697317072266852
aa(lp144
F-0.1430090419201567
aF-0.04362231855800775
aF-0.18253533553005968
aF-0.07667766269566938
aF0.1842102796950747
aF0.11095733187750197
aF-0.21787631225657797
aF0.43878544446965095
aF0.2780529267539103
aF-0.17510850630575625
aF-0.20628596781100178
aF-0.13796186094603796
aF0.20447037769504686
aF-0.0879389510208264
aF-0.1980092886834839
aF-0.13848466784080335
aF-0.20263000114468516
aF0.3336766673334493
aF-0.1753240563451781
aF-0.15740541541500572
aa(lp145
F-0.029352292432612732
aF-0.02866255191305454
aF0.0010694609550429216
aF-0.031140427621308097
aF0.0567653493144107
aF-0.006115908387282579
aF0.005003805291953261
aF-0.14672459856724143
aF0.11528521297055665
aF-0.005921428041418389
aF0.020420475732101942
aF-0.021191556780908345
aF0.1109057006804538
aF-0.042681769693614376
aF0.008971285966761406
aF-0.03569690219814338
aF0.000906155799340368
aF0.053825891096957186
aF-0.0064094273778233036
aF-0.029590143616853592
aa(lp146
F0.06696041431186714
aF-0.05053005415944424
aF0.0681187803931898
aF0.014408681972284591
aF-0.22549185411907202
aF-0.09702827549581225
aF0.06634113542329766
aF0.05711415544943082
aF-0.4926546164501527
aF0.07690593226044615
aF0.06833407261361542
aF0.05945898703381187
aF-0.34842242351535324
aF0.01868093890063612
aF0.07884322251454069
aF0.07009777516754494
aF0.07534180495174346
aF-0.02949716481605854
aF0.07094805397130204
aF0.07084303903501664
aa(lp147
F-0.4736777218015241
aF-0.1007302544323544
aF-0.62863482075295
aF-0.23621385187490815
aF0.5982935498662693
aF0.2890443732073156
aF-0.7009666847434123
aF1.539425096612654
aF0.952998150237462
aF-0.5637134953688567
aF-0.702329483585452
aF-0.4142983911451098
aF0.733079138805203
aF-0.263274540870119
aF-0.6160679395623359
aF-0.4486253378693499
aF-0.6698906143535607
aF1.46108452761563
aF-0.5799141141504772
aF-0.48640663140620366
aa(lp148
F-0.019161415556637622
aF-0.03448045759636188
aF0.040867175623998914
aF-0.04158842627428603
aF0.06557583177798859
aF-0.024990643875812842
aF0.06366380320883573
aF0.14595832674262743
aF0.11086544370266085
aF-0.004273028219894519
aF0.08326790063597266
aF-0.02973224627281618
aF0.10925726145303047
aF-0.035138139908213434
aF0.037368788064858806
aF-0.023486743668109482
aF0.050295790760732484
aF0.04215667309077698
aF0.008434023377694846
aF-0.017802326476471095
aa(lp149
F-0.12945865650735913
aF-0.17311131888719405
aF-0.10038171228419203
aF-0.1716945213370564
aF-0.05767863144800933
aF-0.069918383491851
aF-0.09455006369918825
aF-0.19056736062061824
aF-0.030899679053764603
aF-0.12188098264779022
aF-0.08499259372017752
aF-0.14629957213486108
aF-0.05583362306279087
aF-0.1677863531356993
aF-0.10573138125963294
aF-0.1407006971361212
aF-0.10024013448910085
aF-0.12385951526453798
aF-0.12070857726995404
aF-0.13108780900021172
aa(lp150
F0.11456390830708416
aF0.0044548013722182506
aF0.1253872838539748
aF0.043127694101646775
aF-0.1573382917398257
aF-0.061720591703030306
aF0.13862850449454425
aF-0.37211880916031037
aF-0.26296047126923827
aF0.12703390218864558
aF0.13484907480820268
aF0.08797781707304607
aF-0.20046135379339033
aF0.0484654788697219
aF0.11904585639846665
aF0.09080384438463969
aF0.1368653041864399
aF-0.4098497787628269
aF0.12200217365306398
aF0.10647003106718445
aasb.