(iann
NN
p0
(dp1
S'nh'
p2
I20
sS'ni'
p3
I37
sS'ci'
p4
(lp5
(lp6
F-0.008916327938050734
aF-0.0012933231527265019
aF0.008149635202591467
aF0.00917712481534536
aF0.009434800683575195
aF-0.00792911869513381
aF-0.0008786652144603184
aF-0.01202416182209703
aF0.009924619623748117
aF0.0023977549839776353
aF0.00387180095746675
aF0.0016860514499103371
aF0.0026744415580253833
aF-0.00790856734413163
aF-0.006209647862974868
aF0.0003879826341844069
aF0.0023834257012693353
aF-0.006939909714241036
aF-0.00030908945969184413
aF-0.0114695928820701
aa(lp7
F-0.008916327938050734
aF-0.0012933231527265019
aF0.008149635202591467
aF0.00917712481534536
aF0.009434800683575195
aF-0.00792911869513381
aF-0.0008786652144603184
aF-0.01202416182209703
aF0.009924619623748117
aF0.0023977549839776353
aF0.00387180095746675
aF0.0016860514499103371
aF0.0026744415580253833
aF-0.00790856734413163
aF-0.006209647862974868
aF0.0003879826341844069
aF0.0023834257012693353
aF-0.006939909714241036
aF-0.00030908945969184413
aF-0.0114695928820701
aa(lp8
F-0.0
aF-0.0
aF0.0
aF0.0
aF0.0
aF-0.0
aF-0.0
aF-0.0
aF0.0
aF0.0
aF0.0
aF0.0
aF0.0
aF-0.0
aF-0.0
aF0.0
aF0.0
aF-0.0
aF-0.0
aF-0.0
aa(lp9
F-0.008916327938050734
aF-0.0012933231527265019
aF0.008149635202591467
aF0.00917712481534536
aF0.009434800683575195
aF-0.00792911869513381
aF-0.0008786652144603184
aF-0.01202416182209703
aF0.009924619623748117
aF0.0023977549839776353
aF0.00387180095746675
aF0.0016860514499103371
aF0.0026744415580253833
aF-0.00790856734413163
aF-0.006209647862974868
aF0.0003879826341844069
aF0.0023834257012693353
aF-0.006939909714241036
aF-0.00030908945969184413
aF-0.0114695928820701
aa(lp10
F-0.0
aF-0.0
aF0.0
aF0.0
aF0.0
aF-0.0
aF-0.0
aF-0.0
aF0.0
aF0.0
aF0.0
aF0.0
aF0.0
aF-0.0
aF-0.0
aF0.0
aF0.0
aF-0.0
aF-0.0
aF-0.0
aa(lp11
F-0.0
aF-0.0
aF0.0
aF0.0
aF0.0
aF-0.0
aF-0.0
aF-0.0
aF0.0
aF0.0
aF0.0
aF0.0
aF0.0
aF-0.0
aF-0.0
aF0.0
aF0.0
aF-0.0
aF-0.0
aF-0.0
aa(lp12
F-0.0
aF-0.0
aF0.0
aF0.0
aF0.0
aF-0.0
aF-0.0
aF-0.0
aF0.0
aF0.0
aF0.0
aF0.0
aF0.0
aF-0.0
aF-0.0
aF0.0
aF0.0
aF-0.0
aF-0.0
aF-0.0
aa(lp13
F-0.008916327938050734
aF-0.0012933231527265019
aF0.008149635202591467
aF0.00917712481534536
aF0.009434800683575195
aF-0.00792911869513381
aF-0.0008786652144603184
aF-0.01202416182209703
aF0.009924619623748117
aF0.0023977549839776353
aF0.00387180095746675
aF0.0016860514499103371
aF0.0026744415580253833
aF-0.00790856734413163
aF-0.006209647862974868
aF0.0003879826341844069
aF0.0023834257012693353
aF-0.006939909714241036
aF-0.00030908945969184413
aF-0.0114695928820701
aa(lp14
F-0.008916327938050734
aF-0.0012933231527265019
aF0.008149635202591467
aF0.00917712481534536
aF0.009434800683575195
aF-0.00792911869513381
aF-0.0008786652144603184
aF-0.01202416182209703
aF0.009924619623748117
aF0.0023977549839776353
aF0.00387180095746675
aF0.0016860514499103371
aF0.0026744415580253833
aF-0.00790856734413163
aF-0.006209647862974868
aF0.0003879826341844069
aF0.0023834257012693353
aF-0.006939909714241036
aF-0.00030908945969184413
aF-0.0114695928820701
aa(lp15
F-0.008916327938050734
aF-0.0012933231527265019
aF0.008149635202591467
aF0.00917712481534536
aF0.009434800683575195
aF-0.00792911869513381
aF-0.0008786652144603184
aF-0.01202416182209703
aF0.009924619623748117
aF0.0023977549839776353
aF0.00387180095746675
aF0.0016860514499103371
aF0.0026744415580253833
aF-0.00790856734413163
aF-0.006209647862974868
aF0.0003879826341844069
aF0.0023834257012693353
aF-0.006939909714241036
aF-0.00030908945969184413
aF-0.0114695928820701
aa(lp16
F-0.008916327938050734
aF-0.0012933231527265019
aF0.008149635202591467
aF0.00917712481534536
aF0.009434800683575195
aF-0.00792911869513381
aF-0.0008786652144603184
aF-0.01202416182209703
aF0.009924619623748117
aF0.0023977549839776353
aF0.00387180095746675
aF0.0016860514499103371
aF0.0026744415580253833
aF-0.00790856734413163
aF-0.006209647862974868
aF0.0003879826341844069
aF0.0023834257012693353
aF-0.006939909714241036
aF-0.00030908945969184413
aF-0.0114695928820701
aa(lp17
F-0.008916327938050734
aF-0.0012933231527265019
aF0.008149635202591467
aF0.00917712481534536
aF0.009434800683575195
aF-0.00792911869513381
aF-0.0008786652144603184
aF-0.01202416182209703
aF0.009924619623748117
aF0.0023977549839776353
aF0.00387180095746675
aF0.0016860514499103371
aF0.0026744415580253833
aF-0.00790856734413163
aF-0.006209647862974868
aF0.0003879826341844069
aF0.0023834257012693353
aF-0.006939909714241036
aF-0.00030908945969184413
aF-0.0114695928820701
aa(lp18
F-0.008916327938050734
aF-0.0012933231527265019
aF0.008149635202591467
aF0.00917712481534536
aF0.009434800683575195
aF-0.00792911869513381
aF-0.0008786652144603184
aF-0.01202416182209703
aF0.009924619623748117
aF0.0023977549839776353
aF0.00387180095746675
aF0.0016860514499103371
aF0.0026744415580253833
aF-0.00790856734413163
aF-0.006209647862974868
aF0.0003879826341844069
aF0.0023834257012693353
aF-0.006939909714241036
aF-0.00030908945969184413
aF-0.0114695928820701
aa(lp19
F-0.008916327938050734
aF-0.0012933231527265019
aF0.008149635202591467
aF0.00917712481534536
aF0.009434800683575195
aF-0.00792911869513381
aF-0.0008786652144603184
aF-0.01202416182209703
aF0.009924619623748117
aF0.0023977549839776353
aF0.00387180095746675
aF0.0016860514499103371
aF0.0026744415580253833
aF-0.00790856734413163
aF-0.006209647862974868
aF0.0003879826341844069
aF0.0023834257012693353
aF-0.006939909714241036
aF-0.00030908945969184413
aF-0.0114695928820701
aa(lp20
F-0.008916327938050734
aF-0.0012933231527265019
aF0.008149635202591467
aF0.00917712481534536
aF0.009434800683575195
aF-0.00792911869513381
aF-0.0008786652144603184
aF-0.01202416182209703
aF0.009924619623748117
aF0.0023977549839776353
aF0.00387180095746675
aF0.0016860514499103371
aF0.0026744415580253833
aF-0.00790856734413163
aF-0.006209647862974868
aF0.0003879826341844069
aF0.0023834257012693353
aF-0.006939909714241036
aF-0.00030908945969184413
aF-0.0114695928820701
aa(lp21
F-0.0
aF-0.0
aF0.0
aF0.0
aF0.0
aF-0.0
aF-0.0
aF-0.0
aF0.0
aF0.0
aF0.0
aF0.0
aF0.0
aF-0.0
aF-0.0
aF0.0
aF0.0
aF-0.0
aF-0.0
aF-0.0
aa(lp22
F-0.0
aF-0.0
aF0.0
aF0.0
aF0.0
aF-0.0
aF-0.0
aF-0.0
aF0.0
aF0.0
aF0.0
aF0.0
aF0.0
aF-0.0
aF-0.0
aF0.0
aF0.0
aF-0.0
aF-0.0
aF-0.0
aa(lp23
F-0.0
aF-0.0
aF0.0
aF0.0
aF0.0
aF-0.0
aF-0.0
aF-0.0
aF0.0
aF0.0
aF0.0
aF0.0
aF0.0
aF-0.0
aF-0.0
aF0.0
aF0.0
aF-0.0
aF-0.0
aF-0.0
aa(lp24
F-0.0
aF-0.0
aF0.0
aF0.0
aF0.0
aF-0.0
aF-0.0
aF-0.0
aF0.0
aF0.0
aF0.0
aF0.0
aF0.0
aF-0.0
aF-0.0
aF0.0
aF0.0
aF-0.0
aF-0.0
aF-0.0
aa(lp25
F-0.0
aF-0.0
aF0.0
aF0.0
aF0.0
aF-0.0
aF-0.0
aF-0.0
aF0.0
aF0.0
aF0.0
aF0.0
aF0.0
aF-0.0
aF-0.0
aF0.0
aF0.0
aF-0.0
aF-0.0
aF-0.0
aa(lp26
F-0.0
aF-0.0
aF0.0
aF0.0
aF0.0
aF-0.0
aF-0.0
aF-0.0
aF0.0
aF0.0
aF0.0
aF0.0
aF0.0
aF-0.0
aF-0.0
aF0.0
aF0.0
aF-0.0
aF-0.0
aF-0.0
aa(lp27
F-0.008916327938050734
aF-0.0012933231527265019
aF0.008149635202591467
aF0.00917712481534536
aF0.009434800683575195
aF-0.00792911869513381
aF-0.0008786652144603184
aF-0.01202416182209703
aF0.009924619623748117
aF0.0023977549839776353
aF0.00387180095746675
aF0.0016860514499103371
aF0.0026744415580253833
aF-0.00790856734413163
aF-0.006209647862974868
aF0.0003879826341844069
aF0.0023834257012693353
aF-0.006939909714241036
aF-0.00030908945969184413
aF-0.0114695928820701
aa(lp28
F-0.0
aF-0.0
aF0.0
aF0.0
aF0.0
aF-0.0
aF-0.0
aF-0.0
aF0.0
aF0.0
aF0.0
aF0.0
aF0.0
aF-0.0
aF-0.0
aF0.0
aF0.0
aF-0.0
aF-0.0
aF-0.0
aa(lp29
F-0.0
aF-0.0
aF0.0
aF0.0
aF0.0
aF-0.0
aF-0.0
aF-0.0
aF0.0
aF0.0
aF0.0
aF0.0
aF0.0
aF-0.0
aF-0.0
aF0.0
aF0.0
aF-0.0
aF-0.0
aF-0.0
aa(lp30
F-0.008916327938050734
aF-0.0012933231527265019
aF0.008149635202591467
aF0.00917712481534536
aF0.009434800683575195
aF-0.00792911869513381
aF-0.0008786652144603184
aF-0.01202416182209703
aF0.009924619623748117
aF0.0023977549839776353
aF0.00387180095746675
aF0.0016860514499103371
aF0.0026744415580253833
aF-0.00790856734413163
aF-0.006209647862974868
aF0.0003879826341844069
aF0.0023834257012693353
aF-0.006939909714241036
aF-0.00030908945969184413
aF-0.0114695928820701
aa(lp31
F-0.008916327938050734
aF-0.0012933231527265019
aF0.008149635202591467
aF0.00917712481534536
aF0.009434800683575195
aF-0.00792911869513381
aF-0.0008786652144603184
aF-0.01202416182209703
aF0.009924619623748117
aF0.0023977549839776353
aF0.00387180095746675
aF0.0016860514499103371
aF0.0026744415580253833
aF-0.00790856734413163
aF-0.006209647862974868
aF0.0003879826341844069
aF0.0023834257012693353
aF-0.006939909714241036
aF-0.00030908945969184413
aF-0.0114695928820701
aa(lp32
F-0.0
aF-0.0
aF0.0
aF0.0
aF0.0
aF-0.0
aF-0.0
aF-0.0
aF0.0
aF0.0
aF0.0
aF0.0
aF0.0
aF-0.0
aF-0.0
aF0.0
aF0.0
aF-0.0
aF-0.0
aF-0.0
aa(lp33
F-0.008916327938050734
aF-0.0012933231527265019
aF0.008149635202591467
aF0.00917712481534536
aF0.009434800683575195
aF-0.00792911869513381
aF-0.0008786652144603184
aF-0.01202416182209703
aF0.009924619623748117
aF0.0023977549839776353
aF0.00387180095746675
aF0.0016860514499103371
aF0.0026744415580253833
aF-0.00790856734413163
aF-0.006209647862974868
aF0.0003879826341844069
aF0.0023834257012693353
aF-0.006939909714241036
aF-0.00030908945969184413
aF-0.0114695928820701
aa(lp34
F-0.0
aF-0.0
aF0.0
aF0.0
aF0.0
aF-0.0
aF-0.0
aF-0.0
aF0.0
aF0.0
aF0.0
aF0.0
aF0.0
aF-0.0
aF-0.0
aF0.0
aF0.0
aF-0.0
aF-0.0
aF-0.0
aa(lp35
F-0.008916327938050734
aF-0.0012933231527265019
aF0.008149635202591467
aF0.00917712481534536
aF0.009434800683575195
aF-0.00792911869513381
aF-0.0008786652144603184
aF-0.01202416182209703
aF0.009924619623748117
aF0.0023977549839776353
aF0.00387180095746675
aF0.0016860514499103371
aF0.0026744415580253833
aF-0.00790856734413163
aF-0.006209647862974868
aF0.0003879826341844069
aF0.0023834257012693353
aF-0.006939909714241036
aF-0.00030908945969184413
aF-0.0114695928820701
aa(lp36
F-0.008916327938050734
aF-0.0012933231527265019
aF0.008149635202591467
aF0.00917712481534536
aF0.009434800683575195
aF-0.00792911869513381
aF-0.0008786652144603184
aF-0.01202416182209703
aF0.009924619623748117
aF0.0023977549839776353
aF0.00387180095746675
aF0.0016860514499103371
aF0.0026744415580253833
aF-0.00790856734413163
aF-0.006209647862974868
aF0.0003879826341844069
aF0.0023834257012693353
aF-0.006939909714241036
aF-0.00030908945969184413
aF-0.0114695928820701
aa(lp37
F-0.0
aF-0.0
aF0.0
aF0.0
aF0.0
aF-0.0
aF-0.0
aF-0.0
aF0.0
aF0.0
aF0.0
aF0.0
aF0.0
aF-0.0
aF-0.0
aF0.0
aF0.0
aF-0.0
aF-0.0
aF-0.0
aa(lp38
F-0.0
aF-0.0
aF0.0
aF0.0
aF0.0
aF-0.0
aF-0.0
aF-0.0
aF0.0
aF0.0
aF0.0
aF0.0
aF0.0
aF-0.0
aF-0.0
aF0.0
aF0.0
aF-0.0
aF-0.0
aF-0.0
aa(lp39
F-0.0
aF-0.0
aF0.0
aF0.0
aF0.0
aF-0.0
aF-0.0
aF-0.0
aF0.0
aF0.0
aF0.0
aF0.0
aF0.0
aF-0.0
aF-0.0
aF0.0
aF0.0
aF-0.0
aF-0.0
aF-0.0
aa(lp40
F-0.008916327938050734
aF-0.0012933231527265019
aF0.008149635202591467
aF0.00917712481534536
aF0.009434800683575195
aF-0.00792911869513381
aF-0.0008786652144603184
aF-0.01202416182209703
aF0.009924619623748117
aF0.0023977549839776353
aF0.00387180095746675
aF0.0016860514499103371
aF0.0026744415580253833
aF-0.00790856734413163
aF-0.006209647862974868
aF0.0003879826341844069
aF0.0023834257012693353
aF-0.006939909714241036
aF-0.00030908945969184413
aF-0.0114695928820701
aa(lp41
F-0.0
aF-0.0
aF0.0
aF0.0
aF0.0
aF-0.0
aF-0.0
aF-0.0
aF0.0
aF0.0
aF0.0
aF0.0
aF0.0
aF-0.0
aF-0.0
aF0.0
aF0.0
aF-0.0
aF-0.0
aF-0.0
aa(lp42
F-0.008916327938050734
aF-0.0012933231527265019
aF0.008149635202591467
aF0.00917712481534536
aF0.009434800683575195
aF-0.00792911869513381
aF-0.0008786652144603184
aF-0.01202416182209703
aF0.009924619623748117
aF0.0023977549839776353
aF0.00387180095746675
aF0.0016860514499103371
aF0.0026744415580253833
aF-0.00790856734413163
aF-0.006209647862974868
aF0.0003879826341844069
aF0.0023834257012693353
aF-0.006939909714241036
aF-0.00030908945969184413
aF-0.0114695928820701
aasS'co'
p43
(lp44
(lp45
F0.014950401854041506
aa(lp46
F0.019745307559285448
aa(lp47
F0.03831065890630131
aa(lp48
F0.03932181920028191
aa(lp49
F0.039897948810039593
aa(lp50
F0.01487939902299544
aa(lp51
F0.020347996790068226
aa(lp52
F0.014276403572151706
aa(lp53
F0.040630813175871534
aa(lp54
F0.026869796864350804
aa(lp55
F0.03009195022221262
aa(lp56
F0.024991201872292767
aa(lp57
F0.026940622387788153
aa(lp58
F0.015264443084550744
aa(lp59
F0.01510045541923424
aa(lp60
F0.0226393870689292
aa(lp61
F0.026739090889782848
aa(lp62
F0.015187064573026062
aa(lp63
F0.02115973579855964
aa(lp64
F0.014030503302145846
aasS'no'
p65
I1
sS'ai'
p66
(lp67
I1
aI1
aI0
aI1
aI0
aI0
aI0
aI1
aI1
aI1
aI1
aI1
aI1
aI1
aI1
aI0
aI0
aI0
aI0
aI0
aI0
aI1
aI0
aI0
aI1
aI1
aI0
aI1
aI0
aI1
aI1
aI0
aI0
aI0
aI1
aI0
aF1.0
asS'ah'
p68
(lp69
F0.25574460145136424
aF0.3377672293751073
aF0.6553498888514883
aF0.6726470015921473
aF0.6825023913582744
aF0.254530012645988
aF0.3480769533965993
aF0.24421505036212615
aF0.6950389175993352
aF0.45964018607933765
aF0.5147589938790612
aF0.42750455974481644
aF0.4608517418248558
aF0.2611166543312786
aF0.2583114481221912
aF0.3872739394948971
aF0.45740430321146963
aF0.2597930018446112
aF0.3619627252464739
aF0.240008630550579
asS'ao'
p70
(lp71
F0.7138286037837065
asS'wo'
p72
(lp73
(lp74
F-0.8005820580277389
aa(lp75
F-0.09792097631165898
aa(lp76
F0.619135724100742
aa(lp77
F0.7149122165414298
aa(lp78
F0.7467983865458704
aa(lp79
F-0.7140968843759165
aa(lp80
F-0.06522032986523825
aa(lp81
F-1.1136775923463362
aa(lp82
F0.8029972729449495
aa(lp83
F0.16648542741060082
aa(lp84
F0.2666628777447737
aa(lp85
F0.1190946924070369
aa(lp86
F0.18547394792402727
aa(lp87
F-0.7004352731915469
aa(lp88
F-0.5536859945690331
aa(lp89
F0.0291012483070485
aa(lp90
F0.16561466277467898
aa(lp91
F-0.616584025104244
aa(lp92
F-0.02183634135235409
aa(lp93
F-1.0749363645310044
aasS'wi'
p94
(lp95
(lp96
F-0.1215670816966104
aF-0.052526653561956405
aF0.07979175498118866
aF0.10044507935136468
aF0.10516649825271383
aF-0.10966917978527432
aF-0.03214667115724001
aF-0.1520188448599637
aF0.11179296722868005
aF0.004975918222032784
aF0.035053213089571725
aF-0.00900607460180353
aF0.0009636378341309449
aF-0.11071887444134239
aF-0.09688793315743303
aF-0.024006975288312946
aF0.002032550059480482
aF-0.0975128193430845
aF-0.024044307869764515
aF-0.14048958866562009
aa(lp97
F-0.13866742130088816
aF-0.03055870542328336
aF0.11968818851174975
aF0.11924732826210786
aF0.12143389998583227
aF-0.13108817280400192
aF-0.04132163942398734
aF-0.17077648960156808
aF0.1329081348455271
aF0.02081945092673103
aF0.04405469554091991
aF0.007360173662189386
aF0.027895343592016217
aF-0.12659361262229304
aF-0.11607985329728797
aF-0.017684619368983332
aF0.010455780679890976
aF-0.11753776329670915
aF-0.02529733416989642
aF-0.17495381862546927
aa(lp98
F-0.08202004978266869
aF-0.03509232536336205
aF0.05171235531039896
aF0.05932683863123482
aF0.05335576800420784
aF-0.07728919895730565
aF-0.022201451761240967
aF-0.0899611572514841
aF0.061968901807186755
aF-0.007858336796833041
aF0.009126733751551598
aF-0.013253198558957567
aF0.0002277347416911136
aF-0.06627134338565796
aF-0.06952404328118714
aF-0.016672989011712155
aF0.004174584086604196
aF-0.0655558596151547
aF-0.01843400876093887
aF-0.0873250848913844
aa(lp99
F-0.0889587491313019
aF-0.03900693521665311
aF0.04377353767461226
aF0.05301743230997572
aF0.06430348559324317
aF-0.0852376623622773
aF-0.03576243519966546
aF-0.1053943483418557
aF0.05913369232434294
aF-0.0005704997456896345
aF0.01042010005105557
aF-0.00592464579560351
aF-0.00846813996205644
aF-0.07511437644672114
aF-0.06767871611049178
aF-0.01714852516632667
aF-0.008543008252393859
aF-0.07076808301787747
aF-0.03376098729477247
aF-0.08602541523898258
aa(lp100
F0.2752847627434515
aF-0.005546593437990312
aF-0.24095257192390204
aF-0.2673050030182212
aF-0.2835699654748633
aF0.23212332367591987
aF-0.009103168375795615
aF0.4054928311207715
aF-0.3098701343629143
aF-0.08347486891380493
aF-0.12153851674700626
aF-0.0752802660702975
aF-0.08739697897071716
aF0.23451916932643815
aF0.17205331152985578
aF-0.04464616743644186
aF-0.09494818414484317
aF0.19557208616219612
aF-0.02436773897450774
aF0.3846186958934895
aa(lp101
F0.24229324334678085
aF-0.007234546016289776
aF-0.20318627634026346
aF-0.22788508149021036
aF-0.23627575139222737
aF0.2124663878282619
aF-0.0029718537399104836
aF0.3424997009257692
aF-0.2654222067578748
aF-0.06986836501844093
aF-0.10809465749563754
aF-0.06419927360024907
aF-0.07369503423264331
aF0.21311788435544726
aF0.1574204272111669
aF-0.034449285814147884
aF-0.07611613539785166
aF0.18133420780874684
aF-0.020662197031469695
aF0.335668716747362
aa(lp102
F-0.13931894577487577
aF-0.0425702150366297
aF0.09079040258133614
aF0.10287987115186269
aF0.11226753135717195
aF-0.12780779955482813
aF-0.02631163760696215
aF-0.1665837643603443
aF0.12407404808525144
aF0.005567530305277848
aF0.024105925100446967
aF-0.0004048346803286929
aF0.014189556591624056
aF-0.1304743099609804
aF-0.09782041556005115
aF-0.025335246196068046
aF0.0038228079440894265
aF-0.10358017520898041
aF-0.03304387441929273
aF-0.15661801492796967
aa(lp103
F-0.06520530094225228
aF-0.04833892710223933
aF0.05796906502145246
aF0.05063530758605617
aF0.060497540599264245
aF-0.0717391258599236
aF-0.026524587165741794
aF-0.08052344048896458
aF0.05878587405592045
aF0.003347147504478566
aF0.015389512145664783
aF-0.0035889392525190714
aF6.704965018146914e-05
aF-0.06698124574436604
aF-0.06112456668999498
aF-0.015417385807408408
aF-0.0012169554221629865
aF-0.07392845522311087
aF-0.03170869105964336
aF-0.08765414960864296
aa(lp104
F-0.1062891584065277
aF-0.045437674252860404
aF0.0876506139361148
aF0.10270424432911286
aF0.09670926146112199
aF-0.09888718250573393
aF-0.03734502933620403
aF-0.14910654427666506
aF0.10732154611606212
aF0.00034968667047112777
aF0.02090616009058981
aF0.00224727409238042
aF0.007025541692844787
aF-0.10246731663019543
aF-0.09293532797307599
aF-0.012994876332511712
aF0.0016925177724051816
aF-0.09808931074255935
aF-0.033393555039049026
aF-0.1412567326229682
aa(lp105
F-0.030889195625558547
aF-0.028062938773891728
aF0.020439455411576136
aF0.023052708913781243
aF0.007974458725283174
aF-0.0345154428333137
aF-0.033733798856488084
aF-0.0172482894339849
aF0.017066837471898574
aF-0.0050401580735749294
aF0.0036415308136419086
aF-0.009608212667577611
aF-0.010514787141143499
aF-0.036992803713712726
aF-0.039090090591994725
aF-0.01634318197327779
aF-0.01953395651655514
aF-0.023412657272877734
aF-0.027432508291438073
aF-0.031355378514627004
aa(lp106
F0.022528061504767972
aF-0.030654101059294527
aF-0.04357844242268282
aF-0.048603470933807354
aF-0.039098599215938064
aF0.01244336670970516
aF-0.0322630244075412
aF0.05734561064121806
aF-0.0416627760827129
aF-0.04285564602362744
aF-0.023451534094129416
aF-0.030099900074843984
aF-0.03961330072274968
aF0.012961117673985214
aF-0.004760682247772544
aF-0.03646458041166939
aF-0.039743654059694135
aF0.0008735845892815478
aF-0.04435010159778509
aF0.03884099004116512
aa(lp107
F0.03380994573199953
aF-0.03377408379729563
aF-0.043746704503282184
aF-0.059584729743890855
aF-0.04952639621171209
aF0.027933536940121517
aF-0.03974645386113084
aF0.07692121539106152
aF-0.05205817872355151
aF-0.04059107639834133
aF-0.039211984083349076
aF-0.04220313998467099
aF-0.04100191162249311
aF0.022448731740655523
aF-0.0011788971109654082
aF-0.036998629762324535
aF-0.0339640674808979
aF0.0037448945114025383
aF-0.03212053454127302
aF0.07247416794160745
aa(lp108
F-0.13748733543725897
aF-0.037613750454768106
aF0.08309838117075631
aF0.10009655587170371
aF0.11219160273238682
aF-0.12377282216030897
aF-0.044192176724640805
aF-0.1668981736154521
aF0.11429726260951617
aF-0.0029999201367030045
aF0.02683893043617146
aF-0.01090005646146257
aF0.004906364365935575
aF-0.12116235765800801
aF-0.11365687132167843
aF-0.024033065889746377
aF0.007427916935263625
aF-0.10652367553730813
aF-0.031608591529229554
aF-0.16783331056276216
aa(lp109
F-0.13035652652558766
aF-0.03756591325270117
aF0.09565121935464388
aF0.10596194979789163
aF0.10175764106549016
aF-0.12010271853120275
aF-0.03653361667604112
aF-0.1566239597842272
aF0.11534552434018829
aF0.015718333513331205
aF0.018786276927263187
aF-0.0048098121239403034
aF0.019969474405559965
aF-0.1198281300040402
aF-0.09545216075374068
aF-0.02311317649892411
aF0.011331659873115922
aF-0.10828215013974123
aF-0.024849550875229158
aF-0.15901524927768648
aa(lp110
F-0.06672560526067264
aF-0.0481461059220823
aF0.045194802304001004
aF0.06371122808715193
aF0.059222646847485585
aF-0.07081617707213914
aF-0.04420289052996785
aF-0.08092446761385531
aF0.058124932343149846
aF-0.0064907300278543335
aF0.009855445946345617
aF-0.00890888392948372
aF-0.005485626638935293
aF-0.06834948433660852
aF-0.06373407482748229
aF-0.02036157206372928
aF0.004523445684693298
aF-0.07020763610526314
aF-0.027523227967458583
aF-0.08625705433987478
aa(lp111
F-0.23915217479387058
aF-0.0399127949074152
aF0.18710535303176049
aF0.2217446360156844
aF0.2263906983156627
aF-0.2016739820500774
aF-0.03174973978488192
aF-0.3236860543420334
aF0.22877655621730267
aF0.04203684271661142
aF0.07984149967404136
aF0.03505414206505025
aF0.0644961068608827
aF-0.2141210975974413
aF-0.16402404073534235
aF-0.0033858803652298277
aF0.05053305006416719
aF-0.1953568930814529
aF-0.013845854689279517
aF-0.3072507127668874
aa(lp112
F-0.04017699722679148
aF-0.01045611769662729
aF0.02088487584462414
aF0.029304960479545866
aF0.024591604267771926
aF-0.03321241058050455
aF-0.02605062567174521
aF-0.03480464793416527
aF0.018006416487862602
aF-0.0033283342615668785
aF0.0015026201692349547
aF-0.01413376210697969
aF0.002628358766457494
aF-0.0345997047870513
aF-0.03113436581575839
aF-0.009069955475696745
aF-0.006169343331685353
aF-0.03585906419736045
aF-0.010640486959045322
aF-0.030749200618685166
aa(lp113
F0.1161810966021574
aF0.0034493491770597735
aF-0.10514536254878502
aF-0.13212746857942875
aF-0.12265193186520063
aF0.09699720201689056
aF-0.009451430259452198
aF0.1693216902695736
aF-0.13483263913004853
aF-0.0473802348554784
aF-0.048156086058119635
aF-0.03405203173152013
aF-0.05152936099940671
aF0.08728142469632448
aF0.0731566603118621
aF-0.021710997666080326
aF-0.0349260053577704
aF0.0764726157592421
aF-0.017400312212984638
aF0.16900629125424382
aa(lp114
F-0.09522872664545519
aF-0.05191579572603413
aF0.05888032442199992
aF0.07780577824857543
aF0.07310626288825431
aF-0.09065548384679097
aF-0.030708913519238067
aF-0.11674449481940365
aF0.08565746490580346
aF-0.004045596358854996
aF0.006121922403482551
aF-0.010622797371233188
aF0.00751512694012928
aF-0.10111710640982018
aF-0.08766602632797492
aF-0.03106059984120686
aF-0.0018020056257157281
aF-0.08721486222575431
aF-0.030520151517502984
aF-0.10790120631703286
aa(lp115
F0.31829042696833926
aF-0.002302150101830353
aF-0.280402023773897
aF-0.31852984670372403
aF-0.33760811511490124
aF0.28736330597836945
aF-0.007563044376140881
aF0.47214020007813207
aF-0.3605586953616003
aF-0.09759427088964447
aF-0.13582016815358963
aF-0.0813429005058344
aF-0.11850708053709437
aF0.27533323980193786
aF0.19264959519015207
aF-0.0392520293663371
aF-0.09756429168477843
aF0.23385030850987237
aF-0.03164894428381601
aF0.44241838829892854
aa(lp116
F0.21064911386019966
aF-0.013999658714363969
aF-0.18625093069383222
aF-0.21664260305467772
aF-0.23567039841831589
aF0.16964784429921773
aF-0.0239613210451896
aF0.3055403634399992
aF-0.24904861338369047
aF-0.07855304748297064
aF-0.09276779493805663
aF-0.07120511494240947
aF-0.07389863994142526
aF0.16963934670397954
aF0.12987592618621707
aF-0.05104216054684753
aF-0.07364437716316727
aF0.14898648990124203
aF-0.02910990992640756
aF0.30115951007408037
aa(lp117
F-0.16434683769533576
aF-0.047644497050434324
aF0.12724017168751142
aF0.1376851848467725
aF0.1444087986938641
aF-0.15075528532049
aF-0.038081985972157235
aF-0.21391272586376506
aF0.15980724297633017
aF0.02412949159106172
aF0.04845352553917729
aF-0.0013715322445491008
aF0.01646918782285103
aF-0.14796541809472488
aF-0.12460378111217243
aF-0.01662169110419572
aF0.015504680395860962
aF-0.1415914915846303
aF-0.03311034945779619
aF-0.20437784397424325
aa(lp118
F0.2414512428927784
aF-0.004047261875714959
aF-0.2280355486403636
aF-0.24589086854103048
aF-0.2716926405478685
aF0.2226337575059811
aF-0.00959062611276443
aF0.3631545719711401
aF-0.2854604096807035
aF-0.09351010658364536
aF-0.11598754786979558
aF-0.06660389676082154
aF-0.08571196308012759
aF0.20347014582233192
aF0.1588126313084102
aF-0.04981361834801865
aF-0.0876284688772731
aF0.17800539073381197
aF-0.03005334216504705
aF0.3462418759047369
aa(lp119
F0.18104625383886946
aF-0.012607038044519962
aF-0.16380518625230647
aF-0.20348743577037864
aF-0.20059390031835703
aF0.16108336202969098
aF-0.017957871550023964
aF0.26963926670341043
aF-0.210566190828356
aF-0.07665210498193359
aF-0.09437574734867933
aF-0.05174128837429737
aF-0.0832609286447058
aF0.15826081029876218
aF0.11420467502029988
aF-0.051305583362785866
aF-0.07572527571264559
aF0.13840772407164953
aF-0.03139525378432268
aF0.2667238662236566
aa(lp120
F0.025483841695541597
aF-0.02275914012658777
aF-0.05275103266514523
aF-0.06507805909962489
aF-0.06027249745368725
aF0.017788295469271742
aF-0.040416050480378565
aF0.059660303782610564
aF-0.056636623739728345
aF-0.04679556854030178
aF-0.03990821206797808
aF-0.04396869818635248
aF-0.028864439415694467
aF0.018432493216094824
aF0.004781431571836433
aF-0.034314930941490275
aF-0.036696380005100636
aF0.007553285666516701
aF-0.04207067055045517
aF0.05490981410796375
aa(lp121
F-0.0014454732772298511
aF-0.023427359033423693
aF0.002797621364875031
aF-0.006768817411074627
aF0.0027084991739531974
aF-0.01404996326802666
aF-0.033324651683618915
aF0.005844572974943948
aF-0.0023901388600242176
aF-0.026880192126530946
aF-0.02045869494637288
aF-0.028978310467104928
aF-0.009952261031416956
aF-0.008612051093688565
aF-0.027744878494698172
aF-0.020670291657428543
aF-0.02387918249011705
aF-0.013464691413397309
aF-0.027115667307902498
aF0.01312242733517068
aa(lp122
F-0.022967520092304815
aF-0.04152831399995713
aF-0.00539290659099455
aF0.004121616548530784
aF-0.0014738240321203473
aF-0.03276995911571024
aF-0.044056738301609825
aF-0.003581579712179628
aF-0.005683954021795124
aF-0.01720942694227879
aF-0.015557325581487563
aF-0.02708629513108275
aF-0.015730455237261194
aF-0.021281247010480737
aF-0.027523766888580478
aF-0.022517305700218395
aF-0.020020621054961336
aF-0.03204208987416594
aF-0.03634699474611401
aF-0.004840611818727235
aa(lp123
F-0.028644495225013406
aF-0.029897357651448617
aF0.015143300353794622
aF0.019484341131610863
aF0.028365300874951448
aF-0.028682540787499673
aF-0.012772620823671445
aF-0.006347547057951732
aF0.021581522622409866
aF-0.002030846318660413
aF-0.008660701085050015
aF-0.016583985696717405
aF-0.007815559016266451
aF-0.025473530197281463
aF-0.024941884016156667
aF-0.02100622118996234
aF-0.0028020744300226276
aF-0.03110475315210014
aF-0.022152766911359065
aF-0.018826612853888817
aa(lp124
F0.029381170051934625
aF-0.022186244963864295
aF-0.034780710882612545
aF-0.04477382100758783
aF-0.04888080699133684
aF0.02224398399528328
aF-0.027007815607046827
aF0.05620673832923293
aF-0.05480557751897203
aF-0.02354505285824965
aF-0.03769995975066328
aF-0.03950212987630647
aF-0.02617591473171676
aF0.024996193587206783
aF0.011059630456283349
aF-0.02526003236862995
aF-0.028966997494223712
aF0.0031847384935460533
aF-0.03746767155739243
aF0.05665560945684374
aa(lp125
F0.0015086086912852515
aF-0.028921332656289427
aF-0.0048086858051190695
aF-0.010580741262957933
aF0.00237582659311429
aF-0.016328280484682826
aF-0.028792151181792992
aF0.011241354743337902
aF0.0020329923317977273
aF-0.01093700683305024
aF-0.016210841926113616
aF-0.025557831454221355
aF-0.0223630265847474
aF-0.005583436264956364
aF-0.028017174711246026
aF-0.03181062674922682
aF-0.013047418782594052
aF-0.012023501743181666
aF-0.03717277825056149
aF0.008184092879787193
aa(lp126
F-0.13012625729060584
aF-0.031246318504549512
aF0.10853654831120285
aF0.1267565653674212
aF0.12464298507298713
aF-0.12984885086336062
aF-0.017065321069939417
aF-0.17272084550569136
aF0.14202334920269927
aF0.019076449838152033
aF0.04780465048362785
aF0.012226679617609853
aF0.02060675153706352
aF-0.11841575754162535
aF-0.10623299779063582
aF-0.010552966106588032
aF0.031108132488590172
aF-0.11440154606886312
aF-0.0075155942185459665
aF-0.16780754741284432
aa(lp127
F0.010024986631462311
aF-0.008701191706450445
aF-0.014597557341669527
aF-0.010914076695844583
aF-0.014533943584984828
aF0.014202867079821817
aF-0.013111589956619912
aF0.021175869184586638
aF-0.01712594457787193
aF-0.007756366771468025
aF-0.016814195894017125
aF-0.008741643483249906
aF-0.005554637983873195
aF0.0003282236745879134
aF0.009325380313259355
aF-0.007792584555735611
aF-0.01831734327274845
aF0.006232713087262132
aF-0.013785678529567682
aF0.02558716421046949
aa(lp128
F0.1064145702415243
aF-0.007901500529776773
aF-0.09861091817245318
aF-0.10566346059549324
aF-0.10890034106978842
aF0.07990149491749111
aF-0.008803265503444273
aF0.1428850207403078
aF-0.1232270045844175
aF-0.04254878621790808
aF-0.05864449144814675
aF-0.04019800038409924
aF-0.039626555223084094
aF0.08890456021554395
aF0.05460927975176438
aF-0.028484722259058178
aF-0.030916119278885008
aF0.06702948461616995
aF-0.015691569641467
aF0.14479643462380987
aa(lp129
F-0.17925211549187944
aF-0.042115658919416606
aF0.14723474797196434
aF0.17750580488006898
aF0.1845761932040238
aF-0.16404214458153207
aF-0.01634113661887957
aF-0.24723472973552774
aF0.189246841435159
aF0.03535140199513798
aF0.06787414787936569
aF0.033005227163807556
aF0.03674071262366469
aF-0.16811404990542378
aF-0.1433932719905071
aF-0.003749693720916443
aF0.03410463230040898
aF-0.14245796579937164
aF-0.02196923768193186
aF-0.24660522117698716
aa(lp130
F0.013126980041443385
aF-0.011262644579029528
aF-0.026736016069564293
aF-0.022911284671370987
aF-0.030037529292000317
aF0.009578283049266076
aF-0.011648840622199612
aF0.03236707589138128
aF-0.039203993474538616
aF-0.02386571789342805
aF-0.017998521028850113
aF-0.030506564659132193
aF-0.030293299417451423
aF0.014538516930411496
aF-0.0002119754219173139
aF-0.024751870154110872
aF-0.021197196801263137
aF0.009875988781981183
aF-0.010906239235927621
aF0.03568078106101208
aa(lp131
F0.10976506115221044
aF0.0013408703406506284
aF-0.10560145518697031
aF-0.11764335752873799
aF-0.10998358382731842
aF0.0828329434180004
aF-0.006263432416252146
aF0.1584035590453575
aF-0.11220326235221417
aF-0.03993442589894204
aF-0.053516070099744434
aF-0.03316576221472693
aF-0.047492287851727884
aF0.08508906764150838
aF0.06599782090790515
aF-0.026037059673022687
aF-0.030033145355183002
aF0.07450585799687806
aF-0.011515512406078178
aF0.15123994055418916
aa(lp132
F0.03757653097708912
aF-0.04764434221587187
aF-0.06497208253981987
aF-0.06037097132503621
aF-0.07856461844163037
aF0.03562114164658647
aF-0.04246372928164792
aF0.08798490279773312
aF-0.0750581081822181
aF-0.0388725094268682
aF-0.05257221019347898
aF-0.0402556072820138
aF-0.04790448447916641
aF0.018191600998913544
aF-0.0011121249094491197
aF-0.05412188612190865
aF-0.05198531517299496
aF0.00316315971502947
aF-0.05101564724362573
aF0.07911212118747982
aasb.