ccopy_reg
_reconstructor
p0
(cdtree
BoostResult
p1
c__builtin__
object
p2
Ntp3
Rp4
(dp5
S'listCfer'
p6
(lp7
g0
(cdtree
DTree
p8
g2
Ntp9
Rp10
(dp11
S'fDefaultLabel'
p12
I01
sS'dictChildren'
p13
(dp14
I0
g0
(g8
g2
Ntp15
Rp16
(dp17
g12
Nsg13
(dp18
sS'ixAttr'
p19
NsS'fLabel'
p20
I00
sbsI1
g0
(g8
g2
Ntp21
Rp22
(dp23
g12
Nsg13
(dp24
sg19
Nsg20
I01
sbsI2
g0
(g8
g2
Ntp25
Rp26
(dp27
g12
Nsg13
(dp28
sg19
Nsg20
I01
sbsI3
g0
(g8
g2
Ntp29
Rp30
(dp31
g12
Nsg13
(dp32
sg19
Nsg20
I01
sbsI4
g0
(g8
g2
Ntp33
Rp34
(dp35
g12
Nsg13
(dp36
sg19
Nsg20
I01
sbsI5
g0
(g8
g2
Ntp37
Rp38
(dp39
g12
Nsg13
(dp40
sg19
Nsg20
I01
sbsI6
g0
(g8
g2
Ntp41
Rp42
(dp43
g12
Nsg13
(dp44
sg19
Nsg20
I01
sbsI7
g0
(g8
g2
Ntp45
Rp46
(dp47
g12
Nsg13
(dp48
sg19
Nsg20
I01
sbsI8
g0
(g8
g2
Ntp49
Rp50
(dp51
g12
Nsg13
(dp52
sg19
Nsg20
I01
sbsI9
g0
(g8
g2
Ntp53
Rp54
(dp55
g12
Nsg13
(dp56
sg19
Nsg20
I01
sbsI10
g0
(g8
g2
Ntp57
Rp58
(dp59
g12
Nsg13
(dp60
sg19
Nsg20
I01
sbsI11
g0
(g8
g2
Ntp61
Rp62
(dp63
g12
Nsg13
(dp64
sg19
Nsg20
I01
sbsI12
g0
(g8
g2
Ntp65
Rp66
(dp67
g12
Nsg13
(dp68
sg19
Nsg20
I01
sbsI16
g0
(g8
g2
Ntp69
Rp70
(dp71
g12
Nsg13
(dp72
sg19
Nsg20
I01
sbssg19
I42
sg20
Nsbag0
(g8
g2
Ntp73
Rp74
(dp75
g12
I01
sg13
(dp76
I0
g0
(g8
g2
Ntp77
Rp78
(dp79
g12
Nsg13
(dp80
sg19
Nsg20
I01
sbsI1
g0
(g8
g2
Ntp81
Rp82
(dp83
g12
Nsg13
(dp84
sg19
Nsg20
I00
sbsI2
g0
(g8
g2
Ntp85
Rp86
(dp87
g12
Nsg13
(dp88
sg19
Nsg20
I01
sbsI3
g0
(g8
g2
Ntp89
Rp90
(dp91
g12
Nsg13
(dp92
sg19
Nsg20
I01
sbsI4
g0
(g8
g2
Ntp93
Rp94
(dp95
g12
Nsg13
(dp96
sg19
Nsg20
I01
sbsI5
g0
(g8
g2
Ntp97
Rp98
(dp99
g12
Nsg13
(dp100
sg19
Nsg20
I01
sbsI6
g0
(g8
g2
Ntp101
Rp102
(dp103
g12
Nsg13
(dp104
sg19
Nsg20
I01
sbsI7
g0
(g8
g2
Ntp105
Rp106
(dp107
g12
Nsg13
(dp108
sg19
Nsg20
I01
sbsI8
g0
(g8
g2
Ntp109
Rp110
(dp111
g12
Nsg13
(dp112
sg19
Nsg20
I01
sbsI9
g0
(g8
g2
Ntp113
Rp114
(dp115
g12
Nsg13
(dp116
sg19
Nsg20
I01
sbsI10
g0
(g8
g2
Ntp117
Rp118
(dp119
g12
Nsg13
(dp120
sg19
Nsg20
I01
sbsI11
g0
(g8
g2
Ntp121
Rp122
(dp123
g12
Nsg13
(dp124
sg19
Nsg20
I01
sbsI12
g0
(g8
g2
Ntp125
Rp126
(dp127
g12
Nsg13
(dp128
sg19
Nsg20
I00
sbsI16
g0
(g8
g2
Ntp129
Rp130
(dp131
g12
Nsg13
(dp132
sg19
Nsg20
I01
sbssg19
I42
sg20
Nsbag0
(g8
g2
Ntp133
Rp134
(dp135
g12
I01
sg13
(dp136
I0
g0
(g8
g2
Ntp137
Rp138
(dp139
g12
Nsg13
(dp140
sg19
Nsg20
I00
sbsI1
g0
(g8
g2
Ntp141
Rp142
(dp143
g12
Nsg13
(dp144
sg19
Nsg20
I01
sbsI2
g0
(g8
g2
Ntp145
Rp146
(dp147
g12
Nsg13
(dp148
sg19
Nsg20
I01
sbsI3
g0
(g8
g2
Ntp149
Rp150
(dp151
g12
Nsg13
(dp152
sg19
Nsg20
I01
sbsI4
g0
(g8
g2
Ntp153
Rp154
(dp155
g12
Nsg13
(dp156
sg19
Nsg20
I01
sbsI5
g0
(g8
g2
Ntp157
Rp158
(dp159
g12
Nsg13
(dp160
sg19
Nsg20
I01
sbsI6
g0
(g8
g2
Ntp161
Rp162
(dp163
g12
Nsg13
(dp164
sg19
Nsg20
I01
sbsI7
g0
(g8
g2
Ntp165
Rp166
(dp167
g12
Nsg13
(dp168
sg19
Nsg20
I01
sbsI8
g0
(g8
g2
Ntp169
Rp170
(dp171
g12
Nsg13
(dp172
sg19
Nsg20
I01
sbsI9
g0
(g8
g2
Ntp173
Rp174
(dp175
g12
Nsg13
(dp176
sg19
Nsg20
I01
sbsI10
g0
(g8
g2
Ntp177
Rp178
(dp179
g12
Nsg13
(dp180
sg19
Nsg20
I01
sbsI11
g0
(g8
g2
Ntp181
Rp182
(dp183
g12
Nsg13
(dp184
sg19
Nsg20
I01
sbsI12
g0
(g8
g2
Ntp185
Rp186
(dp187
g12
Nsg13
(dp188
sg19
Nsg20
I00
sbsI16
g0
(g8
g2
Ntp189
Rp190
(dp191
g12
Nsg13
(dp192
sg19
Nsg20
I01
sbssg19
I42
sg20
Nsbag0
(g8
g2
Ntp193
Rp194
(dp195
g12
I01
sg13
(dp196
I0
g0
(g8
g2
Ntp197
Rp198
(dp199
g12
Nsg13
(dp200
sg19
Nsg20
I01
sbsI1
g0
(g8
g2
Ntp201
Rp202
(dp203
g12
Nsg13
(dp204
sg19
Nsg20
I00
sbsI2
g0
(g8
g2
Ntp205
Rp206
(dp207
g12
Nsg13
(dp208
sg19
Nsg20
I01
sbsI3
g0
(g8
g2
Ntp209
Rp210
(dp211
g12
Nsg13
(dp212
sg19
Nsg20
I01
sbsI4
g0
(g8
g2
Ntp213
Rp214
(dp215
g12
Nsg13
(dp216
sg19
Nsg20
I01
sbsI5
g0
(g8
g2
Ntp217
Rp218
(dp219
g12
Nsg13
(dp220
sg19
Nsg20
I01
sbsI6
g0
(g8
g2
Ntp221
Rp222
(dp223
g12
Nsg13
(dp224
sg19
Nsg20
I01
sbsI7
g0
(g8
g2
Ntp225
Rp226
(dp227
g12
Nsg13
(dp228
sg19
Nsg20
I01
sbsI8
g0
(g8
g2
Ntp229
Rp230
(dp231
g12
Nsg13
(dp232
sg19
Nsg20
I01
sbsI9
g0
(g8
g2
Ntp233
Rp234
(dp235
g12
Nsg13
(dp236
sg19
Nsg20
I01
sbsI10
g0
(g8
g2
Ntp237
Rp238
(dp239
g12
Nsg13
(dp240
sg19
Nsg20
I01
sbsI11
g0
(g8
g2
Ntp241
Rp242
(dp243
g12
Nsg13
(dp244
sg19
Nsg20
I01
sbsI12
g0
(g8
g2
Ntp245
Rp246
(dp247
g12
Nsg13
(dp248
sg19
Nsg20
I01
sbsI16
g0
(g8
g2
Ntp249
Rp250
(dp251
g12
Nsg13
(dp252
sg19
Nsg20
I01
sbssg19
I42
sg20
Nsbag0
(g8
g2
Ntp253
Rp254
(dp255
g12
I01
sg13
(dp256
I0
g0
(g8
g2
Ntp257
Rp258
(dp259
g12
Nsg13
(dp260
sg19
Nsg20
I00
sbsI1
g0
(g8
g2
Ntp261
Rp262
(dp263
g12
Nsg13
(dp264
sg19
Nsg20
I01
sbsI2
g0
(g8
g2
Ntp265
Rp266
(dp267
g12
Nsg13
(dp268
sg19
Nsg20
I00
sbsI3
g0
(g8
g2
Ntp269
Rp270
(dp271
g12
Nsg13
(dp272
sg19
Nsg20
I01
sbsI4
g0
(g8
g2
Ntp273
Rp274
(dp275
g12
Nsg13
(dp276
sg19
Nsg20
I01
sbsI5
g0
(g8
g2
Ntp277
Rp278
(dp279
g12
Nsg13
(dp280
sg19
Nsg20
I01
sbsI6
g0
(g8
g2
Ntp281
Rp282
(dp283
g12
Nsg13
(dp284
sg19
Nsg20
I01
sbsI7
g0
(g8
g2
Ntp285
Rp286
(dp287
g12
Nsg13
(dp288
sg19
Nsg20
I01
sbsI8
g0
(g8
g2
Ntp289
Rp290
(dp291
g12
Nsg13
(dp292
sg19
Nsg20
I01
sbsI9
g0
(g8
g2
Ntp293
Rp294
(dp295
g12
Nsg13
(dp296
sg19
Nsg20
I01
sbsI10
g0
(g8
g2
Ntp297
Rp298
(dp299
g12
Nsg13
(dp300
sg19
Nsg20
I01
sbsI11
g0
(g8
g2
Ntp301
Rp302
(dp303
g12
Nsg13
(dp304
sg19
Nsg20
I01
sbsI12
g0
(g8
g2
Ntp305
Rp306
(dp307
g12
Nsg13
(dp308
sg19
Nsg20
I01
sbsI16
g0
(g8
g2
Ntp309
Rp310
(dp311
g12
Nsg13
(dp312
sg19
Nsg20
I01
sbssg19
I42
sg20
Nsbag0
(g8
g2
Ntp313
Rp314
(dp315
g12
I01
sg13
(dp316
I0
g0
(g8
g2
Ntp317
Rp318
(dp319
g12
Nsg13
(dp320
sg19
Nsg20
I01
sbsI1
g0
(g8
g2
Ntp321
Rp322
(dp323
g12
Nsg13
(dp324
sg19
Nsg20
I00
sbssg19
I19
sg20
Nsbag0
(g8
g2
Ntp325
Rp326
(dp327
g12
I00
sg13
(dp328
I0
g0
(g8
g2
Ntp329
Rp330
(dp331
g12
Nsg13
(dp332
sg19
Nsg20
I00
sbsI1
g0
(g8
g2
Ntp333
Rp334
(dp335
g12
Nsg13
(dp336
sg19
Nsg20
I00
sbsI2
g0
(g8
g2
Ntp337
Rp338
(dp339
g12
Nsg13
(dp340
sg19
Nsg20
I01
sbsI3
g0
(g8
g2
Ntp341
Rp342
(dp343
g12
Nsg13
(dp344
sg19
Nsg20
I01
sbsI4
g0
(g8
g2
Ntp345
Rp346
(dp347
g12
Nsg13
(dp348
sg19
Nsg20
I01
sbsI5
g0
(g8
g2
Ntp349
Rp350
(dp351
g12
Nsg13
(dp352
sg19
Nsg20
I01
sbsI6
g0
(g8
g2
Ntp353
Rp354
(dp355
g12
Nsg13
(dp356
sg19
Nsg20
I01
sbsI7
g0
(g8
g2
Ntp357
Rp358
(dp359
g12
Nsg13
(dp360
sg19
Nsg20
I01
sbsI8
g0
(g8
g2
Ntp361
Rp362
(dp363
g12
Nsg13
(dp364
sg19
Nsg20
I01
sbsI9
g0
(g8
g2
Ntp365
Rp366
(dp367
g12
Nsg13
(dp368
sg19
Nsg20
I01
sbssg19
I39
sg20
Nsbag0
(g8
g2
Ntp369
Rp370
(dp371
g12
I01
sg13
(dp372
I0
g0
(g8
g2
Ntp373
Rp374
(dp375
g12
Nsg13
(dp376
sg19
Nsg20
I01
sbsI1
g0
(g8
g2
Ntp377
Rp378
(dp379
g12
Nsg13
(dp380
sg19
Nsg20
I00
sbssg19
I4
sg20
Nsbag0
(g8
g2
Ntp381
Rp382
(dp383
g12
I00
sg13
(dp384
I0
g0
(g8
g2
Ntp385
Rp386
(dp387
g12
Nsg13
(dp388
sg19
Nsg20
I00
sbsI1
g0
(g8
g2
Ntp389
Rp390
(dp391
g12
Nsg13
(dp392
sg19
Nsg20
I00
sbsI2
g0
(g8
g2
Ntp393
Rp394
(dp395
g12
Nsg13
(dp396
sg19
Nsg20
I00
sbsI3
g0
(g8
g2
Ntp397
Rp398
(dp399
g12
Nsg13
(dp400
sg19
Nsg20
I01
sbsI4
g0
(g8
g2
Ntp401
Rp402
(dp403
g12
Nsg13
(dp404
sg19
Nsg20
I01
sbsI5
g0
(g8
g2
Ntp405
Rp406
(dp407
g12
Nsg13
(dp408
sg19
Nsg20
I01
sbsI6
g0
(g8
g2
Ntp409
Rp410
(dp411
g12
Nsg13
(dp412
sg19
Nsg20
I01
sbsI7
g0
(g8
g2
Ntp413
Rp414
(dp415
g12
Nsg13
(dp416
sg19
Nsg20
I01
sbsI8
g0
(g8
g2
Ntp417
Rp418
(dp419
g12
Nsg13
(dp420
sg19
Nsg20
I01
sbsI9
g0
(g8
g2
Ntp421
Rp422
(dp423
g12
Nsg13
(dp424
sg19
Nsg20
I01
sbssg19
I39
sg20
Nsbag0
(g8
g2
Ntp425
Rp426
(dp427
g12
I01
sg13
(dp428
I0
g0
(g8
g2
Ntp429
Rp430
(dp431
g12
Nsg13
(dp432
sg19
Nsg20
I00
sbsI1
g0
(g8
g2
Ntp433
Rp434
(dp435
g12
Nsg13
(dp436
sg19
Nsg20
I01
sbssg19
I15
sg20
Nsbag0
(g8
g2
Ntp437
Rp438
(dp439
g12
I01
sg13
(dp440
I0
g0
(g8
g2
Ntp441
Rp442
(dp443
g12
Nsg13
(dp444
sg19
Nsg20
I01
sbsI1
g0
(g8
g2
Ntp445
Rp446
(dp447
g12
Nsg13
(dp448
sg19
Nsg20
I00
sbsI2
g0
(g8
g2
Ntp449
Rp450
(dp451
g12
Nsg13
(dp452
sg19
Nsg20
I00
sbsI3
g0
(g8
g2
Ntp453
Rp454
(dp455
g12
Nsg13
(dp456
sg19
Nsg20
I01
sbsI4
g0
(g8
g2
Ntp457
Rp458
(dp459
g12
Nsg13
(dp460
sg19
Nsg20
I01
sbsI5
g0
(g8
g2
Ntp461
Rp462
(dp463
g12
Nsg13
(dp464
sg19
Nsg20
I01
sbsI6
g0
(g8
g2
Ntp465
Rp466
(dp467
g12
Nsg13
(dp468
sg19
Nsg20
I01
sbsI7
g0
(g8
g2
Ntp469
Rp470
(dp471
g12
Nsg13
(dp472
sg19
Nsg20
I01
sbsI8
g0
(g8
g2
Ntp473
Rp474
(dp475
g12
Nsg13
(dp476
sg19
Nsg20
I01
sbsI9
g0
(g8
g2
Ntp477
Rp478
(dp479
g12
Nsg13
(dp480
sg19
Nsg20
I01
sbsI10
g0
(g8
g2
Ntp481
Rp482
(dp483
g12
Nsg13
(dp484
sg19
Nsg20
I01
sbsI11
g0
(g8
g2
Ntp485
Rp486
(dp487
g12
Nsg13
(dp488
sg19
Nsg20
I01
sbsI12
g0
(g8
g2
Ntp489
Rp490
(dp491
g12
Nsg13
(dp492
sg19
Nsg20
I00
sbsI16
g0
(g8
g2
Ntp493
Rp494
(dp495
g12
Nsg13
(dp496
sg19
Nsg20
I01
sbssg19
I42
sg20
Nsbag0
(g8
g2
Ntp497
Rp498
(dp499
g12
I01
sg13
(dp500
I0
g0
(g8
g2
Ntp501
Rp502
(dp503
g12
Nsg13
(dp504
sg19
Nsg20
I00
sbsI1
g0
(g8
g2
Ntp505
Rp506
(dp507
g12
Nsg13
(dp508
sg19
Nsg20
I01
sbssg19
I30
sg20
Nsbag0
(g8
g2
Ntp509
Rp510
(dp511
g12
I00
sg13
(dp512
I0
g0
(g8
g2
Ntp513
Rp514
(dp515
g12
Nsg13
(dp516
sg19
Nsg20
I00
sbsI1
g0
(g8
g2
Ntp517
Rp518
(dp519
g12
Nsg13
(dp520
sg19
Nsg20
I00
sbsI2
g0
(g8
g2
Ntp521
Rp522
(dp523
g12
Nsg13
(dp524
sg19
Nsg20
I01
sbsI3
g0
(g8
g2
Ntp525
Rp526
(dp527
g12
Nsg13
(dp528
sg19
Nsg20
I01
sbsI4
g0
(g8
g2
Ntp529
Rp530
(dp531
g12
Nsg13
(dp532
sg19
Nsg20
I01
sbsI5
g0
(g8
g2
Ntp533
Rp534
(dp535
g12
Nsg13
(dp536
sg19
Nsg20
I01
sbsI6
g0
(g8
g2
Ntp537
Rp538
(dp539
g12
Nsg13
(dp540
sg19
Nsg20
I01
sbsI7
g0
(g8
g2
Ntp541
Rp542
(dp543
g12
Nsg13
(dp544
sg19
Nsg20
I01
sbsI8
g0
(g8
g2
Ntp545
Rp546
(dp547
g12
Nsg13
(dp548
sg19
Nsg20
I01
sbsI9
g0
(g8
g2
Ntp549
Rp550
(dp551
g12
Nsg13
(dp552
sg19
Nsg20
I01
sbsI10
g0
(g8
g2
Ntp553
Rp554
(dp555
g12
Nsg13
(dp556
sg19
Nsg20
I01
sbsI11
g0
(g8
g2
Ntp557
Rp558
(dp559
g12
Nsg13
(dp560
sg19
Nsg20
I01
sbsI12
g0
(g8
g2
Ntp561
Rp562
(dp563
g12
Nsg13
(dp564
sg19
Nsg20
I00
sbsI16
g0
(g8
g2
Ntp565
Rp566
(dp567
g12
Nsg13
(dp568
sg19
Nsg20
I01
sbssg19
I42
sg20
Nsbag0
(g8
g2
Ntp569
Rp570
(dp571
g12
I01
sg13
(dp572
I0
g0
(g8
g2
Ntp573
Rp574
(dp575
g12
Nsg13
(dp576
sg19
Nsg20
I01
sbsI1
g0
(g8
g2
Ntp577
Rp578
(dp579
g12
Nsg13
(dp580
sg19
Nsg20
I00
sbssg19
I22
sg20
Nsbag0
(g8
g2
Ntp581
Rp582
(dp583
g12
I00
sg13
(dp584
I0
g0
(g8
g2
Ntp585
Rp586
(dp587
g12
Nsg13
(dp588
sg19
Nsg20
I00
sbsI1
g0
(g8
g2
Ntp589
Rp590
(dp591
g12
Nsg13
(dp592
sg19
Nsg20
I00
sbsI2
g0
(g8
g2
Ntp593
Rp594
(dp595
g12
Nsg13
(dp596
sg19
Nsg20
I00
sbsI3
g0
(g8
g2
Ntp597
Rp598
(dp599
g12
Nsg13
(dp600
sg19
Nsg20
I00
sbsI4
g0
(g8
g2
Ntp601
Rp602
(dp603
g12
Nsg13
(dp604
sg19
Nsg20
I01
sbsI5
g0
(g8
g2
Ntp605
Rp606
(dp607
g12
Nsg13
(dp608
sg19
Nsg20
I01
sbsI6
g0
(g8
g2
Ntp609
Rp610
(dp611
g12
Nsg13
(dp612
sg19
Nsg20
I01
sbsI7
g0
(g8
g2
Ntp613
Rp614
(dp615
g12
Nsg13
(dp616
sg19
Nsg20
I01
sbsI8
g0
(g8
g2
Ntp617
Rp618
(dp619
g12
Nsg13
(dp620
sg19
Nsg20
I01
sbsI9
g0
(g8
g2
Ntp621
Rp622
(dp623
g12
Nsg13
(dp624
sg19
Nsg20
I01
sbsI10
g0
(g8
g2
Ntp625
Rp626
(dp627
g12
Nsg13
(dp628
sg19
Nsg20
I01
sbsI11
g0
(g8
g2
Ntp629
Rp630
(dp631
g12
Nsg13
(dp632
sg19
Nsg20
I01
sbsI12
g0
(g8
g2
Ntp633
Rp634
(dp635
g12
Nsg13
(dp636
sg19
Nsg20
I00
sbsI16
g0
(g8
g2
Ntp637
Rp638
(dp639
g12
Nsg13
(dp640
sg19
Nsg20
I01
sbssg19
I42
sg20
Nsbag0
(g8
g2
Ntp641
Rp642
(dp643
g12
I01
sg13
(dp644
I0
g0
(g8
g2
Ntp645
Rp646
(dp647
g12
Nsg13
(dp648
sg19
Nsg20
I01
sbsI1
g0
(g8
g2
Ntp649
Rp650
(dp651
g12
Nsg13
(dp652
sg19
Nsg20
I01
sbsI2
g0
(g8
g2
Ntp653
Rp654
(dp655
g12
Nsg13
(dp656
sg19
Nsg20
I01
sbsI3
g0
(g8
g2
Ntp657
Rp658
(dp659
g12
Nsg13
(dp660
sg19
Nsg20
I00
sbsI4
g0
(g8
g2
Ntp661
Rp662
(dp663
g12
Nsg13
(dp664
sg19
Nsg20
I01
sbsI5
g0
(g8
g2
Ntp665
Rp666
(dp667
g12
Nsg13
(dp668
sg19
Nsg20
I01
sbsI6
g0
(g8
g2
Ntp669
Rp670
(dp671
g12
Nsg13
(dp672
sg19
Nsg20
I01
sbsI7
g0
(g8
g2
Ntp673
Rp674
(dp675
g12
Nsg13
(dp676
sg19
Nsg20
I00
sbsI8
g0
(g8
g2
Ntp677
Rp678
(dp679
g12
Nsg13
(dp680
sg19
Nsg20
I01
sbsI9
g0
(g8
g2
Ntp681
Rp682
(dp683
g12
Nsg13
(dp684
sg19
Nsg20
I00
sbsI10
g0
(g8
g2
Ntp685
Rp686
(dp687
g12
Nsg13
(dp688
sg19
Nsg20
I01
sbsI11
g0
(g8
g2
Ntp689
Rp690
(dp691
g12
Nsg13
(dp692
sg19
Nsg20
I01
sbsI12
g0
(g8
g2
Ntp693
Rp694
(dp695
g12
Nsg13
(dp696
sg19
Nsg20
I01
sbsI13
g0
(g8
g2
Ntp697
Rp698
(dp699
g12
Nsg13
(dp700
sg19
Nsg20
I00
sbsI14
g0
(g8
g2
Ntp701
Rp702
(dp703
g12
Nsg13
(dp704
sg19
Nsg20
I01
sbsI15
g0
(g8
g2
Ntp705
Rp706
(dp707
g12
Nsg13
(dp708
sg19
Nsg20
I00
sbsI16
g0
(g8
g2
Ntp709
Rp710
(dp711
g12
Nsg13
(dp712
sg19
Nsg20
I01
sbsI17
g0
(g8
g2
Ntp713
Rp714
(dp715
g12
Nsg13
(dp716
sg19
Nsg20
I00
sbsI18
g0
(g8
g2
Ntp717
Rp718
(dp719
g12
Nsg13
(dp720
sg19
Nsg20
I01
sbsI19
g0
(g8
g2
Ntp721
Rp722
(dp723
g12
Nsg13
(dp724
sg19
Nsg20
I00
sbsI20
g0
(g8
g2
Ntp725
Rp726
(dp727
g12
Nsg13
(dp728
sg19
Nsg20
I00
sbsI21
g0
(g8
g2
Ntp729
Rp730
(dp731
g12
Nsg13
(dp732
sg19
Nsg20
I00
sbsI22
g0
(g8
g2
Ntp733
Rp734
(dp735
g12
Nsg13
(dp736
sg19
Nsg20
I00
sbsI23
g0
(g8
g2
Ntp737
Rp738
(dp739
g12
Nsg13
(dp740
sg19
Nsg20
I00
sbsI24
g0
(g8
g2
Ntp741
Rp742
(dp743
g12
Nsg13
(dp744
sg19
Nsg20
I01
sbssg19
I44
sg20
Nsbag0
(g8
g2
Ntp745
Rp746
(dp747
g12
I01
sg13
(dp748
I0
g0
(g8
g2
Ntp749
Rp750
(dp751
g12
Nsg13
(dp752
sg19
Nsg20
I01
sbsI1
g0
(g8
g2
Ntp753
Rp754
(dp755
g12
Nsg13
(dp756
sg19
Nsg20
I01
sbsI2
g0
(g8
g2
Ntp757
Rp758
(dp759
g12
Nsg13
(dp760
sg19
Nsg20
I00
sbsI3
g0
(g8
g2
Ntp761
Rp762
(dp763
g12
Nsg13
(dp764
sg19
Nsg20
I01
sbsI4
g0
(g8
g2
Ntp765
Rp766
(dp767
g12
Nsg13
(dp768
sg19
Nsg20
I01
sbsI5
g0
(g8
g2
Ntp769
Rp770
(dp771
g12
Nsg13
(dp772
sg19
Nsg20
I01
sbsI6
g0
(g8
g2
Ntp773
Rp774
(dp775
g12
Nsg13
(dp776
sg19
Nsg20
I01
sbsI7
g0
(g8
g2
Ntp777
Rp778
(dp779
g12
Nsg13
(dp780
sg19
Nsg20
I01
sbsI8
g0
(g8
g2
Ntp781
Rp782
(dp783
g12
Nsg13
(dp784
sg19
Nsg20
I01
sbsI9
g0
(g8
g2
Ntp785
Rp786
(dp787
g12
Nsg13
(dp788
sg19
Nsg20
I01
sbsI10
g0
(g8
g2
Ntp789
Rp790
(dp791
g12
Nsg13
(dp792
sg19
Nsg20
I01
sbsI11
g0
(g8
g2
Ntp793
Rp794
(dp795
g12
Nsg13
(dp796
sg19
Nsg20
I01
sbsI12
g0
(g8
g2
Ntp797
Rp798
(dp799
g12
Nsg13
(dp800
sg19
Nsg20
I00
sbsI16
g0
(g8
g2
Ntp801
Rp802
(dp803
g12
Nsg13
(dp804
sg19
Nsg20
I01
sbssg19
I42
sg20
Nsbag0
(g8
g2
Ntp805
Rp806
(dp807
g12
I00
sg13
(dp808
I0
g0
(g8
g2
Ntp809
Rp810
(dp811
g12
Nsg13
(dp812
sg19
Nsg20
I00
sbsI1
g0
(g8
g2
Ntp813
Rp814
(dp815
g12
Nsg13
(dp816
sg19
Nsg20
I00
sbsI2
g0
(g8
g2
Ntp817
Rp818
(dp819
g12
Nsg13
(dp820
sg19
Nsg20
I00
sbsI3
g0
(g8
g2
Ntp821
Rp822
(dp823
g12
Nsg13
(dp824
sg19
Nsg20
I01
sbsI4
g0
(g8
g2
Ntp825
Rp826
(dp827
g12
Nsg13
(dp828
sg19
Nsg20
I01
sbsI5
g0
(g8
g2
Ntp829
Rp830
(dp831
g12
Nsg13
(dp832
sg19
Nsg20
I01
sbsI6
g0
(g8
g2
Ntp833
Rp834
(dp835
g12
Nsg13
(dp836
sg19
Nsg20
I01
sbsI7
g0
(g8
g2
Ntp837
Rp838
(dp839
g12
Nsg13
(dp840
sg19
Nsg20
I01
sbsI8
g0
(g8
g2
Ntp841
Rp842
(dp843
g12
Nsg13
(dp844
sg19
Nsg20
I01
sbsI9
g0
(g8
g2
Ntp845
Rp846
(dp847
g12
Nsg13
(dp848
sg19
Nsg20
I01
sbsI10
g0
(g8
g2
Ntp849
Rp850
(dp851
g12
Nsg13
(dp852
sg19
Nsg20
I00
sbsI11
g0
(g8
g2
Ntp853
Rp854
(dp855
g12
Nsg13
(dp856
sg19
Nsg20
I01
sbsI12
g0
(g8
g2
Ntp857
Rp858
(dp859
g12
Nsg13
(dp860
sg19
Nsg20
I00
sbsI16
g0
(g8
g2
Ntp861
Rp862
(dp863
g12
Nsg13
(dp864
sg19
Nsg20
I01
sbssg19
I42
sg20
Nsbag0
(g8
g2
Ntp865
Rp866
(dp867
g12
I01
sg13
(dp868
I0
g0
(g8
g2
Ntp869
Rp870
(dp871
g12
Nsg13
(dp872
sg19
Nsg20
I01
sbsI1
g0
(g8
g2
Ntp873
Rp874
(dp875
g12
Nsg13
(dp876
sg19
Nsg20
I00
sbssg19
I5
sg20
Nsbag0
(g8
g2
Ntp877
Rp878
(dp879
g12
I00
sg13
(dp880
I0
g0
(g8
g2
Ntp881
Rp882
(dp883
g12
Nsg13
(dp884
sg19
Nsg20
I00
sbsI1
g0
(g8
g2
Ntp885
Rp886
(dp887
g12
Nsg13
(dp888
sg19
Nsg20
I01
sbsI2
g0
(g8
g2
Ntp889
Rp890
(dp891
g12
Nsg13
(dp892
sg19
Nsg20
I00
sbsI3
g0
(g8
g2
Ntp893
Rp894
(dp895
g12
Nsg13
(dp896
sg19
Nsg20
I01
sbsI4
g0
(g8
g2
Ntp897
Rp898
(dp899
g12
Nsg13
(dp900
sg19
Nsg20
I01
sbsI5
g0
(g8
g2
Ntp901
Rp902
(dp903
g12
Nsg13
(dp904
sg19
Nsg20
I01
sbsI6
g0
(g8
g2
Ntp905
Rp906
(dp907
g12
Nsg13
(dp908
sg19
Nsg20
I01
sbsI7
g0
(g8
g2
Ntp909
Rp910
(dp911
g12
Nsg13
(dp912
sg19
Nsg20
I01
sbsI8
g0
(g8
g2
Ntp913
Rp914
(dp915
g12
Nsg13
(dp916
sg19
Nsg20
I01
sbsI9
g0
(g8
g2
Ntp917
Rp918
(dp919
g12
Nsg13
(dp920
sg19
Nsg20
I01
sbssg19
I39
sg20
Nsbag0
(g8
g2
Ntp921
Rp922
(dp923
g12
I01
sg13
(dp924
I0
g0
(g8
g2
Ntp925
Rp926
(dp927
g12
Nsg13
(dp928
sg19
Nsg20
I01
sbsI1
g0
(g8
g2
Ntp929
Rp930
(dp931
g12
Nsg13
(dp932
sg19
Nsg20
I00
sbsI2
g0
(g8
g2
Ntp933
Rp934
(dp935
g12
Nsg13
(dp936
sg19
Nsg20
I00
sbsI3
g0
(g8
g2
Ntp937
Rp938
(dp939
g12
Nsg13
(dp940
sg19
Nsg20
I00
sbsI4
g0
(g8
g2
Ntp941
Rp942
(dp943
g12
Nsg13
(dp944
sg19
Nsg20
I01
sbsI5
g0
(g8
g2
Ntp945
Rp946
(dp947
g12
Nsg13
(dp948
sg19
Nsg20
I00
sbsI6
g0
(g8
g2
Ntp949
Rp950
(dp951
g12
Nsg13
(dp952
sg19
Nsg20
I01
sbsI7
g0
(g8
g2
Ntp953
Rp954
(dp955
g12
Nsg13
(dp956
sg19
Nsg20
I01
sbsI8
g0
(g8
g2
Ntp957
Rp958
(dp959
g12
Nsg13
(dp960
sg19
Nsg20
I01
sbsI9
g0
(g8
g2
Ntp961
Rp962
(dp963
g12
Nsg13
(dp964
sg19
Nsg20
I01
sbsI10
g0
(g8
g2
Ntp965
Rp966
(dp967
g12
Nsg13
(dp968
sg19
Nsg20
I00
sbsI11
g0
(g8
g2
Ntp969
Rp970
(dp971
g12
Nsg13
(dp972
sg19
Nsg20
I01
sbsI12
g0
(g8
g2
Ntp973
Rp974
(dp975
g12
Nsg13
(dp976
sg19
Nsg20
I00
sbsI16
g0
(g8
g2
Ntp977
Rp978
(dp979
g12
Nsg13
(dp980
sg19
Nsg20
I01
sbssg19
I42
sg20
Nsbag0
(g8
g2
Ntp981
Rp982
(dp983
g12
I01
sg13
(dp984
I0
g0
(g8
g2
Ntp985
Rp986
(dp987
g12
Nsg13
(dp988
sg19
Nsg20
I01
sbsI1
g0
(g8
g2
Ntp989
Rp990
(dp991
g12
Nsg13
(dp992
sg19
Nsg20
I00
sbssg19
I23
sg20
Nsbag0
(g8
g2
Ntp993
Rp994
(dp995
g12
I00
sg13
(dp996
I0
g0
(g8
g2
Ntp997
Rp998
(dp999
g12
Nsg13
(dp1000
sg19
Nsg20
I00
sbsI1
g0
(g8
g2
Ntp1001
Rp1002
(dp1003
g12
Nsg13
(dp1004
sg19
Nsg20
I00
sbsI2
g0
(g8
g2
Ntp1005
Rp1006
(dp1007
g12
Nsg13
(dp1008
sg19
Nsg20
I00
sbsI3
g0
(g8
g2
Ntp1009
Rp1010
(dp1011
g12
Nsg13
(dp1012
sg19
Nsg20
I01
sbsI4
g0
(g8
g2
Ntp1013
Rp1014
(dp1015
g12
Nsg13
(dp1016
sg19
Nsg20
I00
sbsI5
g0
(g8
g2
Ntp1017
Rp1018
(dp1019
g12
Nsg13
(dp1020
sg19
Nsg20
I00
sbsI6
g0
(g8
g2
Ntp1021
Rp1022
(dp1023
g12
Nsg13
(dp1024
sg19
Nsg20
I01
sbsI7
g0
(g8
g2
Ntp1025
Rp1026
(dp1027
g12
Nsg13
(dp1028
sg19
Nsg20
I01
sbsI8
g0
(g8
g2
Ntp1029
Rp1030
(dp1031
g12
Nsg13
(dp1032
sg19
Nsg20
I01
sbsI9
g0
(g8
g2
Ntp1033
Rp1034
(dp1035
g12
Nsg13
(dp1036
sg19
Nsg20
I01
sbsI10
g0
(g8
g2
Ntp1037
Rp1038
(dp1039
g12
Nsg13
(dp1040
sg19
Nsg20
I00
sbsI11
g0
(g8
g2
Ntp1041
Rp1042
(dp1043
g12
Nsg13
(dp1044
sg19
Nsg20
I01
sbsI12
g0
(g8
g2
Ntp1045
Rp1046
(dp1047
g12
Nsg13
(dp1048
sg19
Nsg20
I00
sbsI16
g0
(g8
g2
Ntp1049
Rp1050
(dp1051
g12
Nsg13
(dp1052
sg19
Nsg20
I01
sbssg19
I42
sg20
Nsbag0
(g8
g2
Ntp1053
Rp1054
(dp1055
g12
I01
sg13
(dp1056
I0
g0
(g8
g2
Ntp1057
Rp1058
(dp1059
g12
Nsg13
(dp1060
sg19
Nsg20
I00
sbsI1
g0
(g8
g2
Ntp1061
Rp1062
(dp1063
g12
Nsg13
(dp1064
sg19
Nsg20
I01
sbssg19
I33
sg20
Nsbag0
(g8
g2
Ntp1065
Rp1066
(dp1067
g12
I00
sg13
(dp1068
I0
g0
(g8
g2
Ntp1069
Rp1070
(dp1071
g12
Nsg13
(dp1072
sg19
Nsg20
I00
sbsI1
g0
(g8
g2
Ntp1073
Rp1074
(dp1075
g12
Nsg13
(dp1076
sg19
Nsg20
I00
sbsI2
g0
(g8
g2
Ntp1077
Rp1078
(dp1079
g12
Nsg13
(dp1080
sg19
Nsg20
I00
sbsI3
g0
(g8
g2
Ntp1081
Rp1082
(dp1083
g12
Nsg13
(dp1084
sg19
Nsg20
I00
sbsI4
g0
(g8
g2
Ntp1085
Rp1086
(dp1087
g12
Nsg13
(dp1088
sg19
Nsg20
I00
sbsI5
g0
(g8
g2
Ntp1089
Rp1090
(dp1091
g12
Nsg13
(dp1092
sg19
Nsg20
I01
sbsI6
g0
(g8
g2
Ntp1093
Rp1094
(dp1095
g12
Nsg13
(dp1096
sg19
Nsg20
I01
sbsI7
g0
(g8
g2
Ntp1097
Rp1098
(dp1099
g12
Nsg13
(dp1100
sg19
Nsg20
I00
sbsI8
g0
(g8
g2
Ntp1101
Rp1102
(dp1103
g12
Nsg13
(dp1104
sg19
Nsg20
I01
sbsI9
g0
(g8
g2
Ntp1105
Rp1106
(dp1107
g12
Nsg13
(dp1108
sg19
Nsg20
I01
sbsI10
g0
(g8
g2
Ntp1109
Rp1110
(dp1111
g12
Nsg13
(dp1112
sg19
Nsg20
I01
sbsI11
g0
(g8
g2
Ntp1113
Rp1114
(dp1115
g12
Nsg13
(dp1116
sg19
Nsg20
I01
sbsI12
g0
(g8
g2
Ntp1117
Rp1118
(dp1119
g12
Nsg13
(dp1120
sg19
Nsg20
I00
sbsI16
g0
(g8
g2
Ntp1121
Rp1122
(dp1123
g12
Nsg13
(dp1124
sg19
Nsg20
I01
sbssg19
I42
sg20
Nsbag0
(g8
g2
Ntp1125
Rp1126
(dp1127
g12
I01
sg13
(dp1128
I0
g0
(g8
g2
Ntp1129
Rp1130
(dp1131
g12
Nsg13
(dp1132
sg19
Nsg20
I01
sbsI1
g0
(g8
g2
Ntp1133
Rp1134
(dp1135
g12
Nsg13
(dp1136
sg19
Nsg20
I00
sbssg19
I35
sg20
Nsbag0
(g8
g2
Ntp1137
Rp1138
(dp1139
g12
I00
sg13
(dp1140
I0
g0
(g8
g2
Ntp1141
Rp1142
(dp1143
g12
Nsg13
(dp1144
sg19
Nsg20
I00
sbsI1
g0
(g8
g2
Ntp1145
Rp1146
(dp1147
g12
Nsg13
(dp1148
sg19
Nsg20
I00
sbsI2
g0
(g8
g2
Ntp1149
Rp1150
(dp1151
g12
Nsg13
(dp1152
sg19
Nsg20
I00
sbsI3
g0
(g8
g2
Ntp1153
Rp1154
(dp1155
g12
Nsg13
(dp1156
sg19
Nsg20
I00
sbsI4
g0
(g8
g2
Ntp1157
Rp1158
(dp1159
g12
Nsg13
(dp1160
sg19
Nsg20
I00
sbsI5
g0
(g8
g2
Ntp1161
Rp1162
(dp1163
g12
Nsg13
(dp1164
sg19
Nsg20
I00
sbsI6
g0
(g8
g2
Ntp1165
Rp1166
(dp1167
g12
Nsg13
(dp1168
sg19
Nsg20
I01
sbsI7
g0
(g8
g2
Ntp1169
Rp1170
(dp1171
g12
Nsg13
(dp1172
sg19
Nsg20
I00
sbsI8
g0
(g8
g2
Ntp1173
Rp1174
(dp1175
g12
Nsg13
(dp1176
sg19
Nsg20
I01
sbsI9
g0
(g8
g2
Ntp1177
Rp1178
(dp1179
g12
Nsg13
(dp1180
sg19
Nsg20
I01
sbsI10
g0
(g8
g2
Ntp1181
Rp1182
(dp1183
g12
Nsg13
(dp1184
sg19
Nsg20
I00
sbsI11
g0
(g8
g2
Ntp1185
Rp1186
(dp1187
g12
Nsg13
(dp1188
sg19
Nsg20
I01
sbsI12
g0
(g8
g2
Ntp1189
Rp1190
(dp1191
g12
Nsg13
(dp1192
sg19
Nsg20
I00
sbsI16
g0
(g8
g2
Ntp1193
Rp1194
(dp1195
g12
Nsg13
(dp1196
sg19
Nsg20
I01
sbssg19
I42
sg20
NsbasS'listDblCferWeight'
p1197
(lp1198
F0.37138206635265925
aF0.16649441810978347
aF0.12137772374232407
aF0.08997627152000592
aF0.07531128450109871
aF0.16688322955695128
aF0.06329131150402152
aF0.14495971988222758
aF0.06279908786108795
aF0.13334439949728888
aF0.03297085145400085
aF0.12247150492567992
aF0.04551711708480538
aF0.1190141115768307
aF0.04916841563792392
aF0.06952377926856396
aF0.025415020626002954
aF0.02388764819848593
aF0.09714996115969268
aF0.04788350524800193
aF0.025780354317518035
aF0.09219797806757282
aF0.029972113923130254
aF0.09279562962843259
aF0.024670548329137468
aF0.07929625783213386
aF0.046108936176142895
asb.