ccopy_reg
_reconstructor
p0
(cdtree
BoostResult
p1
c__builtin__
object
p2
Ntp3
Rp4
(dp5
S'listCfer'
p6
(lp7
g0
(cdtree
DTree
p8
g2
Ntp9
Rp10
(dp11
S'fDefaultLabel'
p12
I00
sS'dictChildren'
p13
(dp14
I0
g0
(g8
g2
Ntp15
Rp16
(dp17
g12
Nsg13
(dp18
sS'ixAttr'
p19
NsS'fLabel'
p20
I01
sbsI1
g0
(g8
g2
Ntp21
Rp22
(dp23
g12
Nsg13
(dp24
sg19
Nsg20
I00
sbssg19
I19
sg20
Nsbag0
(g8
g2
Ntp25
Rp26
(dp27
g12
I00
sg13
(dp28
I0
g0
(g8
g2
Ntp29
Rp30
(dp31
g12
Nsg13
(dp32
sg19
Nsg20
I01
sbsI1
g0
(g8
g2
Ntp33
Rp34
(dp35
g12
Nsg13
(dp36
sg19
Nsg20
I00
sbssg19
I4
sg20
Nsbag0
(g8
g2
Ntp37
Rp38
(dp39
g12
I00
sg13
(dp40
I0
g0
(g8
g2
Ntp41
Rp42
(dp43
g12
Nsg13
(dp44
sg19
Nsg20
I00
sbsI1
g0
(g8
g2
Ntp45
Rp46
(dp47
g12
Nsg13
(dp48
sg19
Nsg20
I00
sbssg19
I22
sg20
Nsbag0
(g8
g2
Ntp49
Rp50
(dp51
g12
I01
sg13
(dp52
I0
g0
(g8
g2
Ntp53
Rp54
(dp55
g12
Nsg13
(dp56
sg19
Nsg20
I01
sbsI1
g0
(g8
g2
Ntp57
Rp58
(dp59
g12
Nsg13
(dp60
sg19
Nsg20
I00
sbssg19
I22
sg20
Nsbag0
(g8
g2
Ntp61
Rp62
(dp63
g12
I00
sg13
(dp64
I0
g0
(g8
g2
Ntp65
Rp66
(dp67
g12
Nsg13
(dp68
sg19
Nsg20
I00
sbsI1
g0
(g8
g2
Ntp69
Rp70
(dp71
g12
Nsg13
(dp72
sg19
Nsg20
I01
sbssg19
I15
sg20
Nsbag0
(g8
g2
Ntp73
Rp74
(dp75
g12
I00
sg13
(dp76
I0
g0
(g8
g2
Ntp77
Rp78
(dp79
g12
Nsg13
(dp80
sg19
Nsg20
I01
sbsI1
g0
(g8
g2
Ntp81
Rp82
(dp83
g12
Nsg13
(dp84
sg19
Nsg20
I00
sbssg19
I5
sg20
Nsbag0
(g8
g2
Ntp85
Rp86
(dp87
g12
I00
sg13
(dp88
I0
g0
(g8
g2
Ntp89
Rp90
(dp91
g12
Nsg13
(dp92
sg19
Nsg20
I00
sbsI1
g0
(g8
g2
Ntp93
Rp94
(dp95
g12
Nsg13
(dp96
sg19
Nsg20
I01
sbssg19
I33
sg20
Nsbag0
(g8
g2
Ntp97
Rp98
(dp99
g12
I00
sg13
(dp100
I0
g0
(g8
g2
Ntp101
Rp102
(dp103
g12
Nsg13
(dp104
sg19
Nsg20
I00
sbsI1
g0
(g8
g2
Ntp105
Rp106
(dp107
g12
Nsg13
(dp108
sg19
Nsg20
I00
sbssg19
I23
sg20
Nsbag0
(g8
g2
Ntp109
Rp110
(dp111
g12
I01
sg13
(dp112
I0
g0
(g8
g2
Ntp113
Rp114
(dp115
g12
Nsg13
(dp116
sg19
Nsg20
I01
sbsI1
g0
(g8
g2
Ntp117
Rp118
(dp119
g12
Nsg13
(dp120
sg19
Nsg20
I00
sbssg19
I23
sg20
Nsbag0
(g8
g2
Ntp121
Rp122
(dp123
g12
I00
sg13
(dp124
I0
g0
(g8
g2
Ntp125
Rp126
(dp127
g12
Nsg13
(dp128
sg19
Nsg20
I00
sbsI1
g0
(g8
g2
Ntp129
Rp130
(dp131
g12
Nsg13
(dp132
sg19
Nsg20
I01
sbssg19
I21
sg20
Nsbag0
(g8
g2
Ntp133
Rp134
(dp135
g12
I00
sg13
(dp136
I0
g0
(g8
g2
Ntp137
Rp138
(dp139
g12
Nsg13
(dp140
sg19
Nsg20
I01
sbsI1
g0
(g8
g2
Ntp141
Rp142
(dp143
g12
Nsg13
(dp144
sg19
Nsg20
I00
sbssg19
I20
sg20
Nsbag0
(g8
g2
Ntp145
Rp146
(dp147
g12
I00
sg13
(dp148
I0
g0
(g8
g2
Ntp149
Rp150
(dp151
g12
Nsg13
(dp152
sg19
Nsg20
I00
sbsI1
g0
(g8
g2
Ntp153
Rp154
(dp155
g12
Nsg13
(dp156
sg19
Nsg20
I00
sbssg19
I30
sg20
Nsbag0
(g8
g2
Ntp157
Rp158
(dp159
g12
I00
sg13
(dp160
I0
g0
(g8
g2
Ntp161
Rp162
(dp163
g12
Nsg13
(dp164
sg19
Nsg20
I00
sbsI1
g0
(g8
g2
Ntp165
Rp166
(dp167
g12
Nsg13
(dp168
sg19
Nsg20
I01
sbssg19
I30
sg20
Nsbag0
(g8
g2
Ntp169
Rp170
(dp171
g12
I00
sg13
(dp172
I0
g0
(g8
g2
Ntp173
Rp174
(dp175
g12
Nsg13
(dp176
sg19
Nsg20
I00
sbsI1
g0
(g8
g2
Ntp177
Rp178
(dp179
g12
Nsg13
(dp180
sg19
Nsg20
I01
sbssg19
I1
sg20
Nsbag0
(g8
g2
Ntp181
Rp182
(dp183
g12
I00
sg13
(dp184
I0
g0
(g8
g2
Ntp185
Rp186
(dp187
g12
Nsg13
(dp188
sg19
Nsg20
I00
sbsI1
g0
(g8
g2
Ntp189
Rp190
(dp191
g12
Nsg13
(dp192
sg19
Nsg20
I00
sbssg19
I6
sg20
Nsbag0
(g8
g2
Ntp193
Rp194
(dp195
g12
I01
sg13
(dp196
I0
g0
(g8
g2
Ntp197
Rp198
(dp199
g12
Nsg13
(dp200
sg19
Nsg20
I00
sbsI1
g0
(g8
g2
Ntp201
Rp202
(dp203
g12
Nsg13
(dp204
sg19
Nsg20
I01
sbssg19
I6
sg20
Nsbag0
(g8
g2
Ntp205
Rp206
(dp207
g12
I00
sg13
(dp208
I0
g0
(g8
g2
Ntp209
Rp210
(dp211
g12
Nsg13
(dp212
sg19
Nsg20
I00
sbsI1
g0
(g8
g2
Ntp213
Rp214
(dp215
g12
Nsg13
(dp216
sg19
Nsg20
I01
sbssg19
I13
sg20
Nsbag0
(g8
g2
Ntp217
Rp218
(dp219
g12
I00
sg13
(dp220
I0
g0
(g8
g2
Ntp221
Rp222
(dp223
g12
Nsg13
(dp224
sg19
Nsg20
I00
sbsI1
g0
(g8
g2
Ntp225
Rp226
(dp227
g12
Nsg13
(dp228
sg19
Nsg20
I00
sbssg19
I8
sg20
Nsbag0
(g8
g2
Ntp229
Rp230
(dp231
g12
I00
sg13
(dp232
I0
g0
(g8
g2
Ntp233
Rp234
(dp235
g12
Nsg13
(dp236
sg19
Nsg20
I00
sbsI1
g0
(g8
g2
Ntp237
Rp238
(dp239
g12
Nsg13
(dp240
sg19
Nsg20
I01
sbssg19
I8
sg20
Nsbag0
(g8
g2
Ntp241
Rp242
(dp243
g12
I00
sg13
(dp244
I0
g0
(g8
g2
Ntp245
Rp246
(dp247
g12
Nsg13
(dp248
sg19
Nsg20
I00
sbsI1
g0
(g8
g2
Ntp249
Rp250
(dp251
g12
Nsg13
(dp252
sg19
Nsg20
I01
sbssg19
I12
sg20
Nsbag0
(g8
g2
Ntp253
Rp254
(dp255
g12
I00
sg13
(dp256
I0
g0
(g8
g2
Ntp257
Rp258
(dp259
g12
Nsg13
(dp260
sg19
Nsg20
I00
sbsI1
g0
(g8
g2
Ntp261
Rp262
(dp263
g12
Nsg13
(dp264
sg19
Nsg20
I00
sbssg19
I0
sg20
Nsbag0
(g8
g2
Ntp265
Rp266
(dp267
g12
I01
sg13
(dp268
I0
g0
(g8
g2
Ntp269
Rp270
(dp271
g12
Nsg13
(dp272
sg19
Nsg20
I00
sbsI1
g0
(g8
g2
Ntp273
Rp274
(dp275
g12
Nsg13
(dp276
sg19
Nsg20
I01
sbssg19
I0
sg20
Nsbag0
(g8
g2
Ntp277
Rp278
(dp279
g12
I00
sg13
(dp280
I0
g0
(g8
g2
Ntp281
Rp282
(dp283
g12
Nsg13
(dp284
sg19
Nsg20
I00
sbsI1
g0
(g8
g2
Ntp285
Rp286
(dp287
g12
Nsg13
(dp288
sg19
Nsg20
I00
sbssg19
I35
sg20
Nsbag0
(g8
g2
Ntp289
Rp290
(dp291
g12
I01
sg13
(dp292
I0
g0
(g8
g2
Ntp293
Rp294
(dp295
g12
Nsg13
(dp296
sg19
Nsg20
I01
sbsI1
g0
(g8
g2
Ntp297
Rp298
(dp299
g12
Nsg13
(dp300
sg19
Nsg20
I00
sbssg19
I35
sg20
Nsbag0
(g8
g2
Ntp301
Rp302
(dp303
g12
I00
sg13
(dp304
I0
g0
(g8
g2
Ntp305
Rp306
(dp307
g12
Nsg13
(dp308
sg19
Nsg20
I00
sbsI1
g0
(g8
g2
Ntp309
Rp310
(dp311
g12
Nsg13
(dp312
sg19
Nsg20
I01
sbssg19
I18
sg20
Nsbag0
(g8
g2
Ntp313
Rp314
(dp315
g12
I00
sg13
(dp316
I0
g0
(g8
g2
Ntp317
Rp318
(dp319
g12
Nsg13
(dp320
sg19
Nsg20
I00
sbsI1
g0
(g8
g2
Ntp321
Rp322
(dp323
g12
Nsg13
(dp324
sg19
Nsg20
I00
sbssg19
I17
sg20
Nsbag0
(g8
g2
Ntp325
Rp326
(dp327
g12
I00
sg13
(dp328
I0
g0
(g8
g2
Ntp329
Rp330
(dp331
g12
Nsg13
(dp332
sg19
Nsg20
I01
sbsI1
g0
(g8
g2
Ntp333
Rp334
(dp335
g12
Nsg13
(dp336
sg19
Nsg20
I00
sbssg19
I17
sg20
Nsbag0
(g8
g2
Ntp337
Rp338
(dp339
g12
I00
sg13
(dp340
I0
g0
(g8
g2
Ntp341
Rp342
(dp343
g12
Nsg13
(dp344
sg19
Nsg20
I00
sbsI1
g0
(g8
g2
Ntp345
Rp346
(dp347
g12
Nsg13
(dp348
sg19
Nsg20
I01
sbssg19
I3
sg20
Nsbag0
(g8
g2
Ntp349
Rp350
(dp351
g12
I00
sg13
(dp352
I0
g0
(g8
g2
Ntp353
Rp354
(dp355
g12
Nsg13
(dp356
sg19
Nsg20
I00
sbsI1
g0
(g8
g2
Ntp357
Rp358
(dp359
g12
Nsg13
(dp360
sg19
Nsg20
I00
sbssg19
I32
sg20
Nsbag0
(g8
g2
Ntp361
Rp362
(dp363
g12
I01
sg13
(dp364
I0
g0
(g8
g2
Ntp365
Rp366
(dp367
g12
Nsg13
(dp368
sg19
Nsg20
I01
sbsI1
g0
(g8
g2
Ntp369
Rp370
(dp371
g12
Nsg13
(dp372
sg19
Nsg20
I00
sbssg19
I32
sg20
Nsbag0
(g8
g2
Ntp373
Rp374
(dp375
g12
I00
sg13
(dp376
I0
g0
(g8
g2
Ntp377
Rp378
(dp379
g12
Nsg13
(dp380
sg19
Nsg20
I00
sbsI1
g0
(g8
g2
Ntp381
Rp382
(dp383
g12
Nsg13
(dp384
sg19
Nsg20
I00
sbssg19
I14
sg20
Nsbag0
(g8
g2
Ntp385
Rp386
(dp387
g12
I00
sg13
(dp388
I0
g0
(g8
g2
Ntp389
Rp390
(dp391
g12
Nsg13
(dp392
sg19
Nsg20
I00
sbsI1
g0
(g8
g2
Ntp393
Rp394
(dp395
g12
Nsg13
(dp396
sg19
Nsg20
I01
sbssg19
I14
sg20
Nsbag0
(g8
g2
Ntp397
Rp398
(dp399
g12
I00
sg13
(dp400
I0
g0
(g8
g2
Ntp401
Rp402
(dp403
g12
Nsg13
(dp404
sg19
Nsg20
I00
sbsI1
g0
(g8
g2
Ntp405
Rp406
(dp407
g12
Nsg13
(dp408
sg19
Nsg20
I01
sbssg19
I7
sg20
Nsbag0
(g8
g2
Ntp409
Rp410
(dp411
g12
I00
sg13
(dp412
I0
g0
(g8
g2
Ntp413
Rp414
(dp415
g12
Nsg13
(dp416
sg19
Nsg20
I00
sbsI1
g0
(g8
g2
Ntp417
Rp418
(dp419
g12
Nsg13
(dp420
sg19
Nsg20
I00
sbssg19
I4
sg20
Nsbag0
(g8
g2
Ntp421
Rp422
(dp423
g12
I01
sg13
(dp424
I0
g0
(g8
g2
Ntp425
Rp426
(dp427
g12
Nsg13
(dp428
sg19
Nsg20
I01
sbsI1
g0
(g8
g2
Ntp429
Rp430
(dp431
g12
Nsg13
(dp432
sg19
Nsg20
I00
sbssg19
I4
sg20
Nsbag0
(g8
g2
Ntp433
Rp434
(dp435
g12
I00
sg13
(dp436
I0
g0
(g8
g2
Ntp437
Rp438
(dp439
g12
Nsg13
(dp440
sg19
Nsg20
I00
sbsI1
g0
(g8
g2
Ntp441
Rp442
(dp443
g12
Nsg13
(dp444
sg19
Nsg20
I01
sbssg19
I2
sg20
Nsbag0
(g8
g2
Ntp445
Rp446
(dp447
g12
I00
sg13
(dp448
I0
g0
(g8
g2
Ntp449
Rp450
(dp451
g12
Nsg13
(dp452
sg19
Nsg20
I00
sbsI1
g0
(g8
g2
Ntp453
Rp454
(dp455
g12
Nsg13
(dp456
sg19
Nsg20
I00
sbssg19
I13
sg20
Nsbag0
(g8
g2
Ntp457
Rp458
(dp459
g12
I01
sg13
(dp460
I0
g0
(g8
g2
Ntp461
Rp462
(dp463
g12
Nsg13
(dp464
sg19
Nsg20
I00
sbsI1
g0
(g8
g2
Ntp465
Rp466
(dp467
g12
Nsg13
(dp468
sg19
Nsg20
I01
sbssg19
I13
sg20
Nsbag0
(g8
g2
Ntp469
Rp470
(dp471
g12
I00
sg13
(dp472
I0
g0
(g8
g2
Ntp473
Rp474
(dp475
g12
Nsg13
(dp476
sg19
Nsg20
I01
sbsI1
g0
(g8
g2
Ntp477
Rp478
(dp479
g12
Nsg13
(dp480
sg19
Nsg20
I00
sbssg19
I20
sg20
NsbasS'listDblCferWeight'
p481
(lp482
F0.14827720821687806
aF0.1119464615688631
aF0.11989367098377741
aF0.11712605956019446
aF0.11978080837820898
aF0.09303526805239146
aF0.09479915575290238
aF0.11228067233160165
aF0.10320561781819698
aF0.07046186773169147
aF0.06226734113406836
aF0.07873285625068997
aF0.08521180256993699
aF0.062010648478177256
aF0.04265439473281124
aF0.06334839794279574
aF0.03928722634164544
aF0.05603561112990496
aF0.058159471629632135
aF0.03716821914701132
aF0.05145713647979715
aF0.05417129962197276
aF0.028876406201384958
aF0.044831656229086775
aF0.03785346101456261
aF0.04389765596364202
aF0.039464207561123614
aF0.03476740334598657
aF0.04280998481941692
aF0.03583154961135003
aF0.02528263862783293
aF0.037048193501226505
aF0.026846215489389386
aF0.034931905216828554
aF0.03850675412097451
aF0.02395683911097416
aF0.030435564927135263
aF0.03257763831245075
aF0.02589079133461531
asb.