(iann
NN
p0
(dp1
S'nh'
p2
I20
sS'ni'
p3
I47
sS'ci'
p4
(lp5
(lp6
F-0.0
aF-0.0
aF-0.0
aF0.0
aF0.0
aF-0.0
aF-0.0
aF-0.0
aF-0.0
aF-0.0
aF0.0
aF-0.0
aF-0.0
aF-0.0
aF-0.0
aF-0.0
aF-0.0
aF-0.0
aF-0.0
aF-0.0
aa(lp7
F-0.0
aF-0.0
aF-0.0
aF0.0
aF0.0
aF-0.0
aF-0.0
aF-0.0
aF-0.0
aF-0.0
aF0.0
aF-0.0
aF-0.0
aF-0.0
aF-0.0
aF-0.0
aF-0.0
aF-0.0
aF-0.0
aF-0.0
aa(lp8
F-0.0001232391060045132
aF-0.00037709397226479423
aF-0.00010126214938032223
aF0.00014461235907540913
aF5.413792466824012e-05
aF-7.84624761360539e-05
aF-5.91844555268912e-05
aF-4.0910839055420656e-06
aF-0.00011658716292623864
aF-0.0001447534783288504
aF1.0758278856428902e-05
aF-0.00010410669728993305
aF-3.3811155626413077e-06
aF-0.00012551062611794155
aF-6.958069678599012e-05
aF-6.867825683656365e-05
aF-0.00015401034693045797
aF-5.385426534348269e-05
aF-4.4993964089948975e-05
aF-0.0003808857189242344
aa(lp9
F-0.0001232391060045132
aF-0.00037709397226479423
aF-0.00010126214938032223
aF0.00014461235907540913
aF5.413792466824012e-05
aF-7.84624761360539e-05
aF-5.91844555268912e-05
aF-4.0910839055420656e-06
aF-0.00011658716292623864
aF-0.0001447534783288504
aF1.0758278856428902e-05
aF-0.00010410669728993305
aF-3.3811155626413077e-06
aF-0.00012551062611794155
aF-6.958069678599012e-05
aF-6.867825683656365e-05
aF-0.00015401034693045797
aF-5.385426534348269e-05
aF-4.4993964089948975e-05
aF-0.0003808857189242344
aa(lp10
F-0.0001232391060045132
aF-0.00037709397226479423
aF-0.00010126214938032223
aF0.00014461235907540913
aF5.413792466824012e-05
aF-7.84624761360539e-05
aF-5.91844555268912e-05
aF-4.0910839055420656e-06
aF-0.00011658716292623864
aF-0.0001447534783288504
aF1.0758278856428902e-05
aF-0.00010410669728993305
aF-3.3811155626413077e-06
aF-0.00012551062611794155
aF-6.958069678599012e-05
aF-6.867825683656365e-05
aF-0.00015401034693045797
aF-5.385426534348269e-05
aF-4.4993964089948975e-05
aF-0.0003808857189242344
aa(lp11
F-0.0
aF-0.0
aF-0.0
aF0.0
aF0.0
aF-0.0
aF-0.0
aF-0.0
aF-0.0
aF-0.0
aF0.0
aF-0.0
aF-0.0
aF-0.0
aF-0.0
aF-0.0
aF-0.0
aF-0.0
aF-0.0
aF-0.0
aa(lp12
F-0.0001232391060045132
aF-0.00037709397226479423
aF-0.00010126214938032223
aF0.00014461235907540913
aF5.413792466824012e-05
aF-7.84624761360539e-05
aF-5.91844555268912e-05
aF-4.0910839055420656e-06
aF-0.00011658716292623864
aF-0.0001447534783288504
aF1.0758278856428902e-05
aF-0.00010410669728993305
aF-3.3811155626413077e-06
aF-0.00012551062611794155
aF-6.958069678599012e-05
aF-6.867825683656365e-05
aF-0.00015401034693045797
aF-5.385426534348269e-05
aF-4.4993964089948975e-05
aF-0.0003808857189242344
aa(lp13
F-0.0001232391060045132
aF-0.00037709397226479423
aF-0.00010126214938032223
aF0.00014461235907540913
aF5.413792466824012e-05
aF-7.84624761360539e-05
aF-5.91844555268912e-05
aF-4.0910839055420656e-06
aF-0.00011658716292623864
aF-0.0001447534783288504
aF1.0758278856428902e-05
aF-0.00010410669728993305
aF-3.3811155626413077e-06
aF-0.00012551062611794155
aF-6.958069678599012e-05
aF-6.867825683656365e-05
aF-0.00015401034693045797
aF-5.385426534348269e-05
aF-4.4993964089948975e-05
aF-0.0003808857189242344
aa(lp14
F-0.0
aF-0.0
aF-0.0
aF0.0
aF0.0
aF-0.0
aF-0.0
aF-0.0
aF-0.0
aF-0.0
aF0.0
aF-0.0
aF-0.0
aF-0.0
aF-0.0
aF-0.0
aF-0.0
aF-0.0
aF-0.0
aF-0.0
aa(lp15
F-0.0001232391060045132
aF-0.00037709397226479423
aF-0.00010126214938032223
aF0.00014461235907540913
aF5.413792466824012e-05
aF-7.84624761360539e-05
aF-5.91844555268912e-05
aF-4.0910839055420656e-06
aF-0.00011658716292623864
aF-0.0001447534783288504
aF1.0758278856428902e-05
aF-0.00010410669728993305
aF-3.3811155626413077e-06
aF-0.00012551062611794155
aF-6.958069678599012e-05
aF-6.867825683656365e-05
aF-0.00015401034693045797
aF-5.385426534348269e-05
aF-4.4993964089948975e-05
aF-0.0003808857189242344
aa(lp16
F-0.0001232391060045132
aF-0.00037709397226479423
aF-0.00010126214938032223
aF0.00014461235907540913
aF5.413792466824012e-05
aF-7.84624761360539e-05
aF-5.91844555268912e-05
aF-4.0910839055420656e-06
aF-0.00011658716292623864
aF-0.0001447534783288504
aF1.0758278856428902e-05
aF-0.00010410669728993305
aF-3.3811155626413077e-06
aF-0.00012551062611794155
aF-6.958069678599012e-05
aF-6.867825683656365e-05
aF-0.00015401034693045797
aF-5.385426534348269e-05
aF-4.4993964089948975e-05
aF-0.0003808857189242344
aa(lp17
F-0.0
aF-0.0
aF-0.0
aF0.0
aF0.0
aF-0.0
aF-0.0
aF-0.0
aF-0.0
aF-0.0
aF0.0
aF-0.0
aF-0.0
aF-0.0
aF-0.0
aF-0.0
aF-0.0
aF-0.0
aF-0.0
aF-0.0
aa(lp18
F-0.0001232391060045132
aF-0.00037709397226479423
aF-0.00010126214938032223
aF0.00014461235907540913
aF5.413792466824012e-05
aF-7.84624761360539e-05
aF-5.91844555268912e-05
aF-4.0910839055420656e-06
aF-0.00011658716292623864
aF-0.0001447534783288504
aF1.0758278856428902e-05
aF-0.00010410669728993305
aF-3.3811155626413077e-06
aF-0.00012551062611794155
aF-6.958069678599012e-05
aF-6.867825683656365e-05
aF-0.00015401034693045797
aF-5.385426534348269e-05
aF-4.4993964089948975e-05
aF-0.0003808857189242344
aa(lp19
F-0.0
aF-0.0
aF-0.0
aF0.0
aF0.0
aF-0.0
aF-0.0
aF-0.0
aF-0.0
aF-0.0
aF0.0
aF-0.0
aF-0.0
aF-0.0
aF-0.0
aF-0.0
aF-0.0
aF-0.0
aF-0.0
aF-0.0
aa(lp20
F-0.0
aF-0.0
aF-0.0
aF0.0
aF0.0
aF-0.0
aF-0.0
aF-0.0
aF-0.0
aF-0.0
aF0.0
aF-0.0
aF-0.0
aF-0.0
aF-0.0
aF-0.0
aF-0.0
aF-0.0
aF-0.0
aF-0.0
aa(lp21
F-0.0
aF-0.0
aF-0.0
aF0.0
aF0.0
aF-0.0
aF-0.0
aF-0.0
aF-0.0
aF-0.0
aF0.0
aF-0.0
aF-0.0
aF-0.0
aF-0.0
aF-0.0
aF-0.0
aF-0.0
aF-0.0
aF-0.0
aa(lp22
F-0.0
aF-0.0
aF-0.0
aF0.0
aF0.0
aF-0.0
aF-0.0
aF-0.0
aF-0.0
aF-0.0
aF0.0
aF-0.0
aF-0.0
aF-0.0
aF-0.0
aF-0.0
aF-0.0
aF-0.0
aF-0.0
aF-0.0
aa(lp23
F-0.0001232391060045132
aF-0.00037709397226479423
aF-0.00010126214938032223
aF0.00014461235907540913
aF5.413792466824012e-05
aF-7.84624761360539e-05
aF-5.91844555268912e-05
aF-4.0910839055420656e-06
aF-0.00011658716292623864
aF-0.0001447534783288504
aF1.0758278856428902e-05
aF-0.00010410669728993305
aF-3.3811155626413077e-06
aF-0.00012551062611794155
aF-6.958069678599012e-05
aF-6.867825683656365e-05
aF-0.00015401034693045797
aF-5.385426534348269e-05
aF-4.4993964089948975e-05
aF-0.0003808857189242344
aa(lp24
F-0.0
aF-0.0
aF-0.0
aF0.0
aF0.0
aF-0.0
aF-0.0
aF-0.0
aF-0.0
aF-0.0
aF0.0
aF-0.0
aF-0.0
aF-0.0
aF-0.0
aF-0.0
aF-0.0
aF-0.0
aF-0.0
aF-0.0
aa(lp25
F-0.0
aF-0.0
aF-0.0
aF0.0
aF0.0
aF-0.0
aF-0.0
aF-0.0
aF-0.0
aF-0.0
aF0.0
aF-0.0
aF-0.0
aF-0.0
aF-0.0
aF-0.0
aF-0.0
aF-0.0
aF-0.0
aF-0.0
aa(lp26
F-0.0
aF-0.0
aF-0.0
aF0.0
aF0.0
aF-0.0
aF-0.0
aF-0.0
aF-0.0
aF-0.0
aF0.0
aF-0.0
aF-0.0
aF-0.0
aF-0.0
aF-0.0
aF-0.0
aF-0.0
aF-0.0
aF-0.0
aa(lp27
F-0.0
aF-0.0
aF-0.0
aF0.0
aF0.0
aF-0.0
aF-0.0
aF-0.0
aF-0.0
aF-0.0
aF0.0
aF-0.0
aF-0.0
aF-0.0
aF-0.0
aF-0.0
aF-0.0
aF-0.0
aF-0.0
aF-0.0
aa(lp28
F-0.0001232391060045132
aF-0.00037709397226479423
aF-0.00010126214938032223
aF0.00014461235907540913
aF5.413792466824012e-05
aF-7.84624761360539e-05
aF-5.91844555268912e-05
aF-4.0910839055420656e-06
aF-0.00011658716292623864
aF-0.0001447534783288504
aF1.0758278856428902e-05
aF-0.00010410669728993305
aF-3.3811155626413077e-06
aF-0.00012551062611794155
aF-6.958069678599012e-05
aF-6.867825683656365e-05
aF-0.00015401034693045797
aF-5.385426534348269e-05
aF-4.4993964089948975e-05
aF-0.0003808857189242344
aa(lp29
F-0.0
aF-0.0
aF-0.0
aF0.0
aF0.0
aF-0.0
aF-0.0
aF-0.0
aF-0.0
aF-0.0
aF0.0
aF-0.0
aF-0.0
aF-0.0
aF-0.0
aF-0.0
aF-0.0
aF-0.0
aF-0.0
aF-0.0
aa(lp30
F-0.0
aF-0.0
aF-0.0
aF0.0
aF0.0
aF-0.0
aF-0.0
aF-0.0
aF-0.0
aF-0.0
aF0.0
aF-0.0
aF-0.0
aF-0.0
aF-0.0
aF-0.0
aF-0.0
aF-0.0
aF-0.0
aF-0.0
aa(lp31
F-0.0
aF-0.0
aF-0.0
aF0.0
aF0.0
aF-0.0
aF-0.0
aF-0.0
aF-0.0
aF-0.0
aF0.0
aF-0.0
aF-0.0
aF-0.0
aF-0.0
aF-0.0
aF-0.0
aF-0.0
aF-0.0
aF-0.0
aa(lp32
F-0.0001232391060045132
aF-0.00037709397226479423
aF-0.00010126214938032223
aF0.00014461235907540913
aF5.413792466824012e-05
aF-7.84624761360539e-05
aF-5.91844555268912e-05
aF-4.0910839055420656e-06
aF-0.00011658716292623864
aF-0.0001447534783288504
aF1.0758278856428902e-05
aF-0.00010410669728993305
aF-3.3811155626413077e-06
aF-0.00012551062611794155
aF-6.958069678599012e-05
aF-6.867825683656365e-05
aF-0.00015401034693045797
aF-5.385426534348269e-05
aF-4.4993964089948975e-05
aF-0.0003808857189242344
aa(lp33
F-0.0
aF-0.0
aF-0.0
aF0.0
aF0.0
aF-0.0
aF-0.0
aF-0.0
aF-0.0
aF-0.0
aF0.0
aF-0.0
aF-0.0
aF-0.0
aF-0.0
aF-0.0
aF-0.0
aF-0.0
aF-0.0
aF-0.0
aa(lp34
F-0.0
aF-0.0
aF-0.0
aF0.0
aF0.0
aF-0.0
aF-0.0
aF-0.0
aF-0.0
aF-0.0
aF0.0
aF-0.0
aF-0.0
aF-0.0
aF-0.0
aF-0.0
aF-0.0
aF-0.0
aF-0.0
aF-0.0
aa(lp35
F-0.0001232391060045132
aF-0.00037709397226479423
aF-0.00010126214938032223
aF0.00014461235907540913
aF5.413792466824012e-05
aF-7.84624761360539e-05
aF-5.91844555268912e-05
aF-4.0910839055420656e-06
aF-0.00011658716292623864
aF-0.0001447534783288504
aF1.0758278856428902e-05
aF-0.00010410669728993305
aF-3.3811155626413077e-06
aF-0.00012551062611794155
aF-6.958069678599012e-05
aF-6.867825683656365e-05
aF-0.00015401034693045797
aF-5.385426534348269e-05
aF-4.4993964089948975e-05
aF-0.0003808857189242344
aa(lp36
F-0.0001232391060045132
aF-0.00037709397226479423
aF-0.00010126214938032223
aF0.00014461235907540913
aF5.413792466824012e-05
aF-7.84624761360539e-05
aF-5.91844555268912e-05
aF-4.0910839055420656e-06
aF-0.00011658716292623864
aF-0.0001447534783288504
aF1.0758278856428902e-05
aF-0.00010410669728993305
aF-3.3811155626413077e-06
aF-0.00012551062611794155
aF-6.958069678599012e-05
aF-6.867825683656365e-05
aF-0.00015401034693045797
aF-5.385426534348269e-05
aF-4.4993964089948975e-05
aF-0.0003808857189242344
aa(lp37
F-0.0
aF-0.0
aF-0.0
aF0.0
aF0.0
aF-0.0
aF-0.0
aF-0.0
aF-0.0
aF-0.0
aF0.0
aF-0.0
aF-0.0
aF-0.0
aF-0.0
aF-0.0
aF-0.0
aF-0.0
aF-0.0
aF-0.0
aa(lp38
F-0.0
aF-0.0
aF-0.0
aF0.0
aF0.0
aF-0.0
aF-0.0
aF-0.0
aF-0.0
aF-0.0
aF0.0
aF-0.0
aF-0.0
aF-0.0
aF-0.0
aF-0.0
aF-0.0
aF-0.0
aF-0.0
aF-0.0
aa(lp39
F-0.0
aF-0.0
aF-0.0
aF0.0
aF0.0
aF-0.0
aF-0.0
aF-0.0
aF-0.0
aF-0.0
aF0.0
aF-0.0
aF-0.0
aF-0.0
aF-0.0
aF-0.0
aF-0.0
aF-0.0
aF-0.0
aF-0.0
aa(lp40
F-0.0
aF-0.0
aF-0.0
aF0.0
aF0.0
aF-0.0
aF-0.0
aF-0.0
aF-0.0
aF-0.0
aF0.0
aF-0.0
aF-0.0
aF-0.0
aF-0.0
aF-0.0
aF-0.0
aF-0.0
aF-0.0
aF-0.0
aa(lp41
F-0.0
aF-0.0
aF-0.0
aF0.0
aF0.0
aF-0.0
aF-0.0
aF-0.0
aF-0.0
aF-0.0
aF0.0
aF-0.0
aF-0.0
aF-0.0
aF-0.0
aF-0.0
aF-0.0
aF-0.0
aF-0.0
aF-0.0
aa(lp42
F-0.005299281558194068
aF-0.01621504080738615
aF-0.004354272423353856
aF0.006218331440242592
aF0.002327930760734325
aF-0.003373886473850318
aF-0.0025449315876563215
aF-0.00017591660793830883
aF-0.005013248005828261
aF-0.006224399568140567
aF0.0004626059908264428
aF-0.004476587983467121
aF-0.00014538796919357622
aF-0.005396956923071487
aF-0.0029919699617975753
aF-0.002953165043972237
aF-0.0066224449180096925
aF-0.002315733409769756
aF-0.0019347404558678059
aF-0.01637808591374208
aa(lp43
F-0.0
aF-0.0
aF-0.0
aF0.0
aF0.0
aF-0.0
aF-0.0
aF-0.0
aF-0.0
aF-0.0
aF0.0
aF-0.0
aF-0.0
aF-0.0
aF-0.0
aF-0.0
aF-0.0
aF-0.0
aF-0.0
aF-0.0
aa(lp44
F-0.0
aF-0.0
aF-0.0
aF0.0
aF0.0
aF-0.0
aF-0.0
aF-0.0
aF-0.0
aF-0.0
aF0.0
aF-0.0
aF-0.0
aF-0.0
aF-0.0
aF-0.0
aF-0.0
aF-0.0
aF-0.0
aF-0.0
aa(lp45
F-0.0001232391060045132
aF-0.00037709397226479423
aF-0.00010126214938032223
aF0.00014461235907540913
aF5.413792466824012e-05
aF-7.84624761360539e-05
aF-5.91844555268912e-05
aF-4.0910839055420656e-06
aF-0.00011658716292623864
aF-0.0001447534783288504
aF1.0758278856428902e-05
aF-0.00010410669728993305
aF-3.3811155626413077e-06
aF-0.00012551062611794155
aF-6.958069678599012e-05
aF-6.867825683656365e-05
aF-0.00015401034693045797
aF-5.385426534348269e-05
aF-4.4993964089948975e-05
aF-0.0003808857189242344
aa(lp46
F-0.0
aF-0.0
aF-0.0
aF0.0
aF0.0
aF-0.0
aF-0.0
aF-0.0
aF-0.0
aF-0.0
aF0.0
aF-0.0
aF-0.0
aF-0.0
aF-0.0
aF-0.0
aF-0.0
aF-0.0
aF-0.0
aF-0.0
aa(lp47
F-0.0
aF-0.0
aF-0.0
aF0.0
aF0.0
aF-0.0
aF-0.0
aF-0.0
aF-0.0
aF-0.0
aF0.0
aF-0.0
aF-0.0
aF-0.0
aF-0.0
aF-0.0
aF-0.0
aF-0.0
aF-0.0
aF-0.0
aa(lp48
F-0.0002464782120090264
aF-0.0007541879445295885
aF-0.00020252429876064447
aF0.00028922471815081825
aF0.00010827584933648025
aF-0.0001569249522721078
aF-0.0001183689110537824
aF-8.182167811084131e-06
aF-0.00023317432585247727
aF-0.0002895069566577008
aF2.1516557712857805e-05
aF-0.0002082133945798661
aF-6.7622311252826155e-06
aF-0.0002510212522358831
aF-0.00013916139357198024
aF-0.0001373565136731273
aF-0.00030802069386091593
aF-0.00010770853068696538
aF-8.998792817989795e-05
aF-0.0007617714378484688
aa(lp49
F-0.0
aF-0.0
aF-0.0
aF0.0
aF0.0
aF-0.0
aF-0.0
aF-0.0
aF-0.0
aF-0.0
aF0.0
aF-0.0
aF-0.0
aF-0.0
aF-0.0
aF-0.0
aF-0.0
aF-0.0
aF-0.0
aF-0.0
aa(lp50
F-0.0
aF-0.0
aF-0.0
aF0.0
aF0.0
aF-0.0
aF-0.0
aF-0.0
aF-0.0
aF-0.0
aF0.0
aF-0.0
aF-0.0
aF-0.0
aF-0.0
aF-0.0
aF-0.0
aF-0.0
aF-0.0
aF-0.0
aa(lp51
F-0.0007394346360270792
aF-0.0022625638335887653
aF-0.0006075728962819335
aF0.0008676741544524548
aF0.00032482754800944075
aF-0.00047077485681632343
aF-0.00035510673316134717
aF-2.4546503433252393e-05
aF-0.0006995229775574319
aF-0.0008685208699731024
aF6.454967313857341e-05
aF-0.0006246401837395983
aF-2.0286693375847846e-05
aF-0.0007530637567076492
aF-0.0004174841807159407
aF-0.0004120695410193819
aF-0.0009240620815827477
aF-0.00032312559206089614
aF-0.00026996378453969386
aF-0.0022853143135454063
aa(lp52
F-0.0001232391060045132
aF-0.00037709397226479423
aF-0.00010126214938032223
aF0.00014461235907540913
aF5.413792466824012e-05
aF-7.84624761360539e-05
aF-5.91844555268912e-05
aF-4.0910839055420656e-06
aF-0.00011658716292623864
aF-0.0001447534783288504
aF1.0758278856428902e-05
aF-0.00010410669728993305
aF-3.3811155626413077e-06
aF-0.00012551062611794155
aF-6.958069678599012e-05
aF-6.867825683656365e-05
aF-0.00015401034693045797
aF-5.385426534348269e-05
aF-4.4993964089948975e-05
aF-0.0003808857189242344
aasS'co'
p53
(lp54
(lp55
F-0.000595955837483656
aa(lp56
F-0.0022348491550773695
aa(lp57
F-0.00041493966714718544
aa(lp58
F-0.00024040214587996858
aa(lp59
F-0.00012999260974460629
aa(lp60
F-0.00030916082705589003
aa(lp61
F-0.00022002817454776403
aa(lp62
F-1.7208885440748786e-05
aa(lp63
F-0.0005149971616464718
aa(lp64
F-0.0007245186538444647
aa(lp65
F-0.02531547798568221
aa(lp66
F-0.000473830882477413
aa(lp67
F-1.4031128333122122e-05
aa(lp68
F-0.000612136872136392
aa(lp69
F-0.0002554883435179584
aa(lp70
F-0.00027512372329489186
aa(lp71
F-0.0007818129517579084
aa(lp72
F-0.00021274970422957608
aa(lp73
F-0.00018348392843348143
aa(lp74
F-0.002181566422031486
aasS'no'
p75
I1
sS'ai'
p76
(lp77
I0
aI0
aI1
aI1
aI1
aI0
aI1
aI1
aI0
aI1
aI1
aI0
aI1
aI0
aI0
aI0
aI0
aI1
aI0
aI0
aI0
aI0
aI1
aI0
aI0
aI0
aI1
aI0
aI0
aI1
aI1
aI0
aI0
aI0
aI0
aI0
aI43
aI0
aI0
aI1
aI0
aI0
aI2
aI0
aI0
aI6
aF1.0
asS'ah'
p78
(lp79
F0.02353500754115313
aF0.08825686134759618
aF0.01638646285715827
aF0.009493767759846167
aF0.0051335633585725005
aF0.012209130171309139
aF0.008689175307205208
aF0.0006795994319528254
aF0.020337852774794867
aF0.02861210665195175
aF0.9997384501116939
aF0.01871214726148729
aF0.0005541060098097836
aF0.02417401591832377
aF0.010089539716165252
aF0.010864964306475116
aF0.030874726880912844
aF0.008401739824485718
aF0.007245999397532229
aF0.08615266260471112
asS'ao'
p80
(lp81
F0.17521870515700402
asS'wo'
p82
(lp83
(lp84
F0.21174671035887607
aa(lp85
F0.18495520926806305
aa(lp86
F0.2480854946807075
aa(lp87
F-0.6073212176586692
aa(lp88
F-0.41862475282060324
aa(lp89
F0.2569131958222625
aa(lp90
F0.2713325547441499
aa(lp91
F0.2378917159639957
aa(lp92
F0.23105808752429216
aa(lp93
F0.20564125773447914
aa(lp94
F-1.6260740644983696
aa(lp95
F0.22387877778833576
aa(lp96
F0.24110536044143943
aa(lp97
F0.21008561246373086
aa(lp98
F0.27510697644521975
aa(lp99
F0.25235502961046086
aa(lp100
F0.20322802237827445
aa(lp101
F0.25526853579186826
aa(lp102
F0.2470008519256801
aa(lp103
F0.19094336585804003
aasS'wi'
p104
(lp105
(lp106
F0.2149955474107938
aF0.1913556409976205
aF0.1885294268757495
aF-0.0865884055242151
aF-0.04426475783269449
aF0.19753599218089413
aF0.2046427852497953
aF0.15637137530148326
aF0.20436926457694463
aF0.20768835692512624
aF0.07624115843147627
aF0.22584466124773137
aF0.1673610840352852
aF0.22104360061695
aF0.19905407841936262
aF0.21064438245281217
aF0.21942828587361152
aF0.2060330525227375
aF0.19430873306940516
aF0.20305314574067412
aa(lp107
F0.25921794534889525
aF0.23446147079996127
aF0.24838772975528528
aF-0.08302656504673041
aF-0.05191839792452565
aF0.25815421605997696
aF0.26943360548726725
aF0.21629368922683093
aF0.24898184864480963
aF0.23637787632014068
aF-0.3411925415929519
aF0.25462962654028304
aF0.20917747124260033
aF0.24071978331952004
aF0.25971603352034445
aF0.2542093026618385
aF0.24078255031351598
aF0.25129305140806624
aF0.22853944576226481
aF0.22087610386692536
aa(lp108
F0.19151509481833437
aF0.16383793741819017
aF0.15897862980251565
aF-0.09048523740633826
aF-0.053768604781256966
aF0.1759706784806223
aF0.17834482404741767
aF0.23038004190116165
aF0.17252259633761372
aF0.18271924106076842
aF-0.09732134502526749
aF0.18792638818406712
aF0.2497828493441141
aF0.17953566679141053
aF0.16355641696132234
aF0.17959568006306592
aF0.18508407853610537
aF0.19905880423779287
aF0.19659208882569906
aF0.1753632965609722
aa(lp109
F0.22037763376055747
aF0.20784802819820195
aF0.20175734024673883
aF-0.0955333980751439
aF-0.05697390210764382
aF0.2311780864721295
aF0.23220961268066903
aF0.23189625688878074
aF0.20795296666031282
aF0.22637443598444598
aF-0.16451632583142084
aF0.2377176875376332
aF0.22952933917444351
aF0.23036497279669768
aF0.21570350083409215
aF0.24765431909837712
aF0.2195432161482601
aF0.2605579733947535
aF0.238850847497418
aF0.19253759802876547
aa(lp110
F-0.2611311683293869
aF-0.2536463663520781
aF-0.24638164428328707
aF0.0492070644029993
aF0.018576329631802918
aF-0.26072963059378323
aF-0.252892325626933
aF-0.1885878069261246
aF-0.25928772817897844
aF-0.2572587714626779
aF0.24424672813822537
aF-0.24991396287179915
aF-0.18356278839324383
aF-0.2553332074205111
aF-0.2521466562087465
aF-0.2453392625346515
aF-0.247541480377982
aF-0.22394186511355862
aF-0.21328317729423224
aF-0.25776526290892976
aa(lp111
F-0.30985481530223474
aF-0.28915738234192967
aF-0.30794029243958226
aF0.07114710414058172
aF0.03840138308989944
aF-0.3282762859710374
aF-0.3343884726587243
aF-0.20699273580462663
aF-0.3137834593709386
aF-0.3132264392569921
aF0.4046420613321467
aF-0.32362537074341097
aF-0.21211251159083436
aF-0.2974880665841596
aF-0.3485976085092136
aF-0.30982577463706135
aF-0.30683440714514765
aF-0.2986960062822494
aF-0.27239523246087916
aF-0.29040861970907206
aa(lp112
F0.31769191471733954
aF0.27964540189610515
aF0.2781586294613515
aF-0.10969174386981072
aF-0.06683663540120109
aF0.3059937954858817
aF0.31070246771395627
aF0.26539340665508926
aF0.29162141159384025
aF0.30710180544763793
aF-0.30155841446423154
aF0.323081655534795
aF0.2695253291055183
aF0.3002038662121233
aF0.30459837043786825
aF0.31595413396260136
aF0.309077233376127
aF0.31852834979142514
aF0.309443526731891
aF0.27623532542490276
aa(lp113
F0.16200712178030413
aF0.1500532503382837
aF0.1570437545303116
aF-0.08381579654522057
aF-0.045578297856775675
aF0.1576209040252977
aF0.16465000777381528
aF0.0834101180149006
aF0.17434642968438402
aF0.17138290425379432
aF-0.19723935126603476
aF0.16871070270277666
aF0.09785045847560168
aF0.16470333363358614
aF0.16822913032652118
aF0.1549649972248429
aF0.16374447008913998
aF0.15967493104981004
aF0.14901368796698763
aF0.1516668318451571
aa(lp114
F0.21998320928499074
aF0.1991386891878539
aF0.19429155671139758
aF-0.11463293836266604
aF-0.08176941656507937
aF0.2092973779721322
aF0.2236765087672656
aF0.21921013657100932
aF0.2162348675632079
aF0.2184675378836801
aF-0.22535503973194063
aF0.21241786675127147
aF0.2226498764966172
aF0.21153772045115146
aF0.20473800773236542
aF0.2298873416969513
aF0.22296280520099532
aF0.2348809740712434
aF0.23184060821013153
aF0.19982255199367333
aa(lp115
F-0.07732416233980076
aF-0.06878058399489016
aF-0.06832218181898393
aF-0.016430716609730604
aF-0.01744189311949623
aF-0.07652890504558685
aF-0.08097657285719259
aF-0.044968548752064005
aF-0.07773071632294179
aF-0.07119757172833996
aF0.11142782448201044
aF-0.07740617185822594
aF-0.0433286974967252
aF-0.07694813530159476
aF-0.08167690386981612
aF-0.06573278052758696
aF-0.06807499516007844
aF-0.06768737889736877
aF-0.05300334542101142
aF-0.07316194257566233
aa(lp116
F0.011716353785901459
aF-0.009680151034770434
aF0.001336090465290618
aF-0.026707068528411374
aF-0.02564094940167194
aF-0.01298297291761843
aF-0.011104468218019081
aF-0.01928387459209839
aF-0.015755529044909733
aF-0.0022718252245877055
aF0.01005831145191898
aF0.003137484936797757
aF-0.0114669534283647
aF0.003457461904568683
aF-0.021053695859404017
aF-0.0052393716115175445
aF-0.006528298519902166
aF-0.002126993334695877
aF-0.007501940192565216
aF-0.006127292674319074
aa(lp117
F0.07999037339441992
aF0.05343634444549202
aF0.05279220864971205
aF-0.05670930078438738
aF-0.020036050172453575
aF0.0676625737330698
aF0.07595046399095665
aF0.08295551748921079
aF0.06814018421805076
aF0.07773962294820941
aF0.04471598432454568
aF0.07504201724816255
aF0.07841510538975775
aF0.06344443150167094
aF0.06810670587869584
aF0.07079388970203396
aF0.06249294546577626
aF0.09000044033156336
aF0.071641695414782
aF0.05455368964678187
aa(lp118
F0.2302689891941709
aF0.20016450337090522
aF0.2076258136985325
aF-0.08834445201846605
aF-0.061225326898801856
aF0.20628693226825529
aF0.21570175406175726
aF0.1844307802085123
aF0.21620483555438763
aF0.2158822788266765
aF-0.09458107137702744
aF0.2354906704813267
aF0.18441280950852482
aF0.2245576848702888
aF0.22112939093085957
aF0.22860487193796827
aF0.22112252216308165
aF0.22872378709292765
aF0.21047973891941357
aF0.22607255280909458
aa(lp119
F0.12455250250723035
aF0.09573093435600802
aF0.10283265152871915
aF-0.08279423544348907
aF-0.06148484288412655
aF0.09742414850885797
aF0.11706836969027827
aF0.11968188296240288
aF0.1014701178504316
aF0.1094708741152858
aF-0.19296448474478103
aF0.12036702963915931
aF0.10720806474768851
aF0.10582620207625812
aF0.11017243033776442
aF0.10355600685851281
aF0.10646123173996234
aF0.10609253493188041
aF0.09523632689064901
aF0.11174049217762638
aa(lp120
F0.2699651292573155
aF0.24360569660279185
aF0.2494093092853258
aF-0.10740404674438268
aF-0.05700759536674708
aF0.2693559131094981
aF0.28623319027050337
aF0.2582785116583463
aF0.271311231298231
aF0.27449919852459526
aF-0.30246255849772435
aF0.2781052417171944
aF0.2509707352184365
aF0.2606916048593003
aF0.2736489247749088
aF0.2862280635198405
aF0.27828852607178817
aF0.29628484611685724
aF0.2853290320581247
aF0.25393524759641956
aa(lp121
F0.34462643506214846
aF0.28925121348233707
aF0.27841263735190147
aF-0.12248052302872899
aF-0.06626624200095522
aF0.32266628647958745
aF0.3457770609439698
aF0.2158776644208219
aF0.30648419801903204
aF0.3276036814127901
aF-0.037126305160824415
aF0.32969097909554707
aF0.2289385311378988
aF0.3324556199297267
aF0.3233805528637207
aF0.3467609035963171
aF0.3204726955425413
aF0.34715390508505917
aF0.31749450519788014
aF0.30224603440524783
aa(lp122
F0.14094274902972442
aF0.12463410934781918
aF0.1442065433416365
aF-0.05943948743066556
aF-0.025792093861783133
aF0.1513896532039395
aF0.1601327737092021
aF0.04686244961552635
aF0.13348526093394839
aF0.13299212610398253
aF-0.09921479441839152
aF0.13169369876947615
aF0.05662894347732813
aF0.13467494651578593
aF0.16220063774697968
aF0.12054913458460742
aF0.12486991460660724
aF0.11998532668267699
aF0.10230592458843216
aF0.13595065087327934
aa(lp123
F-0.08036015501229754
aF-0.07646898441533638
aF-0.07894927132128661
aF0.005980918376140557
aF-0.005230899978570183
aF-0.08119276812258272
aF-0.07597990242016896
aF-0.0576546583604359
aF-0.07913882296561117
aF-0.08656627117582251
aF0.09675227923477134
aF-0.07175217554353487
aF-0.04610052695645924
aF-0.08987791699952855
aF-0.07689907586306198
aF-0.07730997132813917
aF-0.08828750636741373
aF-0.08250156829535668
aF-0.06677173570530694
aF-0.07350346219013133
aa(lp124
F0.16479395435890642
aF0.13882015447121362
aF0.15001711980685475
aF-0.08934811243135904
aF-0.05349596246759881
aF0.13228002935662117
aF0.14277318192659352
aF0.16386759832555003
aF0.14099699672079907
aF0.14701160677860642
aF-0.12032663642517973
aF0.15230430068458928
aF0.16714553532858248
aF0.15516441194828473
aF0.12677970040810005
aF0.13005292109567673
aF0.15184589895119527
aF0.13229361331364617
aF0.10829352569473329
aF0.1610285339180235
aa(lp125
F-0.3839817090614225
aF-0.3566812633010255
aF-0.37309764490044356
aF0.0922403310046359
aF0.04349732860852553
aF-0.3775198393737367
aF-0.3965834536371289
aF-0.2712301558686139
aF-0.3863965581112731
aF-0.3657698600595792
aF0.5400144136956759
aF-0.38728722436942337
aF-0.2731294916924073
aF-0.36166367674047467
aF-0.3914124974219383
aF-0.37338072328304683
aF-0.3716403545300667
aF-0.36963412153542474
aF-0.35490527743880707
aF-0.36089402021965317
aa(lp126
F-0.3144943242950303
aF-0.2805557695934351
aF-0.28892669196372434
aF0.07464817350328926
aF0.038244341592427684
aF-0.30824877690109964
aF-0.32216079377684564
aF-0.2331649660371336
aF-0.3097022559311123
aF-0.29223386177138505
aF0.31176324341185324
aF-0.3030440106986803
aF-0.23549404323490605
aF-0.2830618535702902
aF-0.3256246437814768
aF-0.3117814905247314
aF-0.29750012446109075
aF-0.3035952867433774
aF-0.275132635816043
aF-0.2866371841571253
aa(lp127
F0.17470002234744486
aF0.14661911731119906
aF0.1460822969049092
aF-0.09479874206793969
aF-0.05792145387663637
aF0.1657228447235629
aF0.1795347472740208
aF0.15625345510660402
aF0.1730503864151501
aF0.1632231818322184
aF-0.16786737025051787
aF0.16525213066933145
aF0.1701720458546284
aF0.15574773812458906
aF0.16860711415672194
aF0.17569946013591722
aF0.1650144915628488
aF0.1653413999356748
aF0.1553127052103135
aF0.16341088145967694
aa(lp128
F-0.22419806381497784
aF-0.18362266596635612
aF-0.16382315357161437
aF0.0443184190371049
aF0.005547407024534472
aF-0.20929988355211535
aF-0.21414580089310276
aF-0.14682636912368052
aF-0.1940789430825007
aF-0.21751825396599211
aF0.15343229819906692
aF-0.21758536627199285
aF-0.1463533004072226
aF-0.21849908046120592
aF-0.19717243535084372
aF-0.21564976474126815
aF-0.20065311056840587
aF-0.2245336940273437
aF-0.2162039711455234
aF-0.18168967601569377
aa(lp129
F-0.3388457927507044
aF-0.2999880657430088
aF-0.30531372420951686
aF0.06821873402976432
aF0.021418748900047378
aF-0.33131953368770095
aF-0.3325300752056264
aF-0.19474398301516113
aF-0.32223016914434255
aF-0.3310449407759065
aF0.3761893307586329
aF-0.323115614125353
aF-0.19651265275218302
aF-0.3220125223846923
aF-0.33399192736273836
aF-0.33763863401441885
aF-0.33413305466782695
aF-0.31409673915445724
aF-0.2870955520003424
aF-0.31060004852761075
aa(lp130
F0.054386974255031695
aF0.04936390688766794
aF0.03327669591807945
aF-0.04298771413447259
aF-0.01346890671017264
aF0.03200775720824792
aF0.03499895232766703
aF-0.006847486299117351
aF0.05628399660201624
aF0.05523591778371392
aF0.17184087907907897
aF0.04821327189946893
aF0.0003840390450236638
aF0.055631351947907415
aF0.03640909684453845
aF0.0566491463401516
aF0.06723752145815058
aF0.026489747661131765
aF0.02226283844925711
aF0.053740114845499974
aa(lp131
F0.12679414679722306
aF0.12959871709777246
aF0.12143807053338253
aF-0.07454729005189858
aF-0.057669958814845
aF0.1165586577681117
aF0.12351007375781087
aF0.04330376778991256
aF0.13181507398150824
aF0.11971773821386195
aF-0.039178582001450794
aF0.13193308799568923
aF0.025629871599230324
aF0.12810492870693618
aF0.1198389896870044
aF0.13482926631394604
aF0.12824891199929153
aF0.1356252875440921
aF0.13042019760647042
aF0.11569696568315321
aa(lp132
F0.013790431591874043
aF0.003821405422798685
aF0.014907294075545998
aF-0.03492703319603698
aF-0.018213793600135364
aF0.0028460333998304847
aF0.006962912199911714
aF-0.0012080511966700346
aF0.00045484172973045075
aF0.0057776376060721555
aF0.2593321878154435
aF0.013761874961617402
aF-0.01683414669213574
aF0.004142608753136354
aF0.00011415687016020416
aF0.015080839620033464
aF0.0006147535392116246
aF0.00422274480458987
aF0.012799230379526173
aF-0.00025799946427768175
aa(lp133
F0.10470215711047445
aF0.07958894448736159
aF0.07367835857856117
aF-0.06454000834970762
aF-0.048786855178955146
aF0.06277676524625894
aF0.07149771027928874
aF0.1002301070057166
aF0.07699602910475878
aF0.0949740760315449
aF-0.05114989190384167
aF0.09929994883545935
aF0.11596020588930336
aF0.09024669699573126
aF0.06870540269098142
aF0.08471816917455752
aF0.09275554118212134
aF0.08870677302658246
aF0.09785095484109976
aF0.08454031167243822
aa(lp134
F0.0355389645069639
aF0.019209111382846394
aF0.01903463379702446
aF-0.04912290463558509
aF-0.028336940418636818
aF0.010394266020128773
aF0.021579827006406344
aF0.0433749930365073
aF0.029480783621555713
aF0.024919656832061945
aF0.0006042272025620838
aF0.023374956300082416
aF0.0470620508633306
aF0.02984641686429658
aF0.011573408776417295
aF0.026389917099491098
aF0.017888007293110814
aF0.022764002068648186
aF0.012176138257312726
aF0.02945222216077863
aa(lp135
F-0.050168595794892315
aF-0.0373096294915312
aF-0.04511242148722723
aF-0.011658929982515082
aF-0.005809131863199484
aF-0.05429718577256012
aF-0.05772558932393965
aF0.024824084228277695
aF-0.03357532454787023
aF-0.04315757417890237
aF0.07096799183081323
aF-0.05263873593663317
aF0.03333622206006961
aF-0.05083854301983705
aF-0.05906346004476246
aF-0.05866553343974333
aF-0.033621562190831504
aF-0.054835832418933125
aF-0.0367127194059277
aF-0.03665600734960096
aa(lp136
F0.3721311729958404
aF0.35032479796693716
aF0.3555008202296014
aF-0.12241820056929538
aF-0.07029458720290749
aF0.36925618298564283
aF0.3828409000903987
aF0.28480080458450674
aF0.3747544564531044
aF0.37440205164742674
aF-0.5222639924964361
aF0.3761882763545712
aF0.28628477178799877
aF0.36062503447584654
aF0.3750757248000832
aF0.3868356460669268
aF0.360447660365943
aF0.37535676565720266
aF0.3425458853327226
aF0.34436890557723604
aa(lp137
F0.06608350218554292
aF0.04065983311988708
aF0.05443749628597812
aF-0.040132694770619794
aF-0.020767875386067884
aF0.07221908162800862
aF0.06799862966195186
aF0.029890904796406558
aF0.06536413617454948
aF0.06369998828685786
aF-0.05115136731621328
aF0.0681015570484496
aF0.0403539194177755
aF0.05484091848732365
aF0.06303237303664935
aF0.0789805146170294
aF0.0680257302686146
aF0.08752752110624214
aF0.07191386447600362
aF0.049116239434976956
aa(lp138
F-0.20844910102383252
aF-0.1844954166028304
aF-0.21000730516689692
aF0.029806766145533865
aF0.024001654342128198
aF-0.21541608323961237
aF-0.2199482398136923
aF-0.1326916752012366
aF-0.21330949701040502
aF-0.20954603790704457
aF0.27910894103931927
aF-0.20816937109673234
aF-0.1190779507199651
aF-0.20101070798793205
aF-0.2136268568065454
aF-0.2051511663187235
aF-0.20067834895764639
aF-0.19769930656768947
aF-0.17154298961408146
aF-0.19665604040435286
aa(lp139
F0.278444081750803
aF0.2485425217155417
aF0.25508208191754017
aF-0.12918214943057585
aF-0.08738235274714645
aF0.2713102425694744
aF0.2757840842758934
aF0.22337740520625343
aF0.2685373018575081
aF0.2714217452354896
aF-0.41018209477369555
aF0.2638072336077422
aF0.23470754433618196
aF0.26084485771904686
aF0.27006301463795923
aF0.2596855968034262
aF0.2693106916486519
aF0.2704837131990043
aF0.24802728743330607
aF0.2449508681350393
aa(lp140
F0.06565406972205212
aF0.05926473450940706
aF0.04763027411464299
aF-0.02271828940042258
aF-0.018384949911723167
aF0.04889866378718957
aF0.05362872408589601
aF0.0422059857074772
aF0.054538915086513304
aF0.06816103483701012
aF0.05694842833013543
aF0.06545939689125717
aF0.047121028573238494
aF0.0510487985268201
aF0.06991683122213932
aF0.06278341478215578
aF0.06107568189173249
aF0.037721832075246244
aF0.03205760692544168
aF0.06744132399692279
aa(lp141
F-0.14723975598923875
aF-0.12864339686588488
aF-0.13411249624744093
aF0.04862462431543324
aF0.038529685934954594
aF-0.13559117841765086
aF-0.15717020313301075
aF-0.08978890669379579
aF-0.14092744210261998
aF-0.1351530786815425
aF0.2621902093929518
aF-0.13652129119527848
aF-0.0979946108367586
aF-0.12590703538046163
aF-0.14681327158055918
aF-0.15129519329092112
aF-0.1403650348443853
aF-0.13448492825444117
aF-0.14363509054613693
aF-0.13849163866097605
aa(lp142
F-0.1038742738913103
aF-0.06984377894386003
aF-0.10847915482810815
aF-0.039783903983755385
aF-0.0818792817274479
aF-0.12131771065470373
aF-0.12910796581786446
aF-0.23041396258861796
aF-0.10514217028908696
aF-0.09939849257982093
aF0.17643262904957907
aF-0.11040047647025199
aF-0.24007627567552756
aF-0.10424591218162944
aF-0.12472375860752193
aF-0.12769002793889844
aF-0.0983383630674375
aF-0.13701619833745685
aF-0.14317219060165945
aF-0.06605117650106489
aa(lp143
F0.042944140879114946
aF0.04419316093949103
aF0.0551301265859891
aF-0.05919838443638295
aF-0.036918209677797305
aF0.058160605390349736
aF0.04680961092774299
aF0.04479263473202823
aF0.04740792314455978
aF0.04731433268391065
aF-0.19544872992428258
aF0.036685781737922245
aF0.05734337922336019
aF0.03453406020023593
aF0.04827216834014166
aF0.030736712167199514
aF0.03189744070736101
aF0.03623276951948808
aF0.031746494591947144
aF0.044966208979165596
aa(lp144
F0.03720505668175726
aF0.03739797038984939
aF0.05247043929071871
aF0.007578727152711416
aF0.0008363848713142431
aF0.03869559683615511
aF0.03859922949211428
aF0.0037609999785435545
aF0.04230095536149365
aF0.036060830557148066
aF-0.14137276003476135
aF0.02736657870589544
aF0.0033365068363092718
aF0.034296164109439954
aF0.049888696140346245
aF0.020572091551952006
aF0.02570024362149615
aF0.025557609830065723
aF0.015164185753951195
aF0.036246477378228836
aa(lp145
F0.02184696647257969
aF0.02462469230745194
aF0.03649603331550827
aF-0.06315810092633198
aF-0.052883338078174365
aF0.0341794812429972
aF0.043847940389162586
aF0.05254429207590365
aF0.03340933040236546
aF0.01891630586083108
aF-0.054668831805052026
aF0.020692037241668654
aF0.048666973472774135
aF0.013807186743901018
aF0.045988802862130994
aF0.04054075302880763
aF0.029139566411675477
aF0.03062557408884408
aF0.03895665421571587
aF0.010059659501212704
aa(lp146
F0.15903779837609583
aF0.13037104341857617
aF0.16692833406094054
aF-0.14997166184847313
aF-0.08428134106679898
aF0.16548680550264042
aF0.18426823695781805
aF0.11807960760207847
aF0.15409077327299006
aF0.15584393851432637
aF-0.4309164053006908
aF0.16383435697060675
aF0.13739144634345268
aF0.1490286303612524
aF0.18819025469813244
aF0.1609494413654316
aF0.15263498934224234
aF0.14519604218842766
aF0.13689334329408195
aF0.13873122908321905
aa(lp147
F-0.03501323851366535
aF-0.030967184517454515
aF-0.028249089367429526
aF0.028636627364587698
aF0.019631467551833797
aF-0.03538971794388739
aF-0.02515011625791562
aF-0.03551993328227632
aF-0.046606068459305185
aF-0.02432881017625802
aF-0.09677053168519463
aF-0.044989799792255085
aF-0.03061634823094843
aF-0.03310074655071417
aF-0.028656373797466005
aF-0.0299013568326613
aF-0.022134715986600266
aF-0.03902641099195236
aF-0.039363149063756216
aF-0.026778982583593597
aa(lp148
F-0.02754476202091828
aF-0.04051018306105082
aF-0.04934018951794487
aF-0.16722561128666047
aF-0.10107744685869764
aF-0.0037721761259990124
aF0.005722202542708681
aF0.09897195826116648
aF-0.04375537610800338
aF-0.02772528361512434
aF0.1338251563984807
aF-0.02383123326090106
aF0.09353281877882404
aF-0.01121216172169156
aF5.5046160860243394e-05
aF-0.013337460137124427
aF-0.014960330842061413
aF0.010130562768225083
aF0.05519190209200071
aF-0.043229879266473245
aa(lp149
F0.2767740372934584
aF0.23740705254068617
aF0.2705525700986874
aF-0.24866630464793188
aF-0.1490851756295645
aF0.3048402796489286
aF0.3222462396352438
aF0.21685810515971116
aF0.262361975487447
aF0.2775162435760722
aF-0.6373483459933955
aF0.27401947134224103
aF0.2203691052387244
aF0.2654391848936228
aF0.30920390658763697
aF0.288812811087311
aF0.2672793228565637
aF0.296381323223667
aF0.24331127838325356
aF0.2493020567559013
aa(lp150
F0.01715480289810795
aF-0.0016255070042037892
aF-0.00039374709557524944
aF0.0035865843696828168
aF0.009871678405590254
aF0.022694286645474092
aF0.03794138996801481
aF0.038945303547538286
aF0.01546988925632471
aF0.016763187964760614
aF-0.018160636814361784
aF0.010963381536483038
aF0.03551619833554202
aF0.01383656961601093
aF0.030813998428638786
aF0.015238563755937157
aF0.013151425785080127
aF0.004982838940673979
aF-0.00899415867125463
aF-0.002152251645197541
aa(lp151
F-0.023367421503634894
aF-0.017166095113326826
aF-0.033001363855472754
aF-0.31285379375548567
aF-0.1723431902983901
aF-0.005591285908407371
aF-0.016465584118947753
aF0.23889845378978602
aF-0.025784711821148772
aF-0.018587148920661916
aF0.14701433318100876
aF-0.024507546173241107
aF0.26488599779629635
aF-0.00943755748290289
aF-0.01605866414212175
aF0.004060401396634981
aF-0.021052212980436795
aF0.01519456076205037
aF0.024813025957606757
aF-0.04706068311504991
aa(lp152
F0.07654202929120973
aF0.06548158714677697
aF0.047658815143924664
aF-0.06786737118194547
aF-0.04885775990813719
aF0.06869629118542081
aF0.05397141075577996
aF0.08359863169796541
aF0.06580949731433605
aF0.07784578862523128
aF-0.0007595306587708962
aF0.07491396350173828
aF0.09723373146361632
aF0.06176840597368101
aF0.0602408841153751
aF0.07386345500593873
aF0.07959928358115222
aF0.08314027507948026
aF0.06762064936165592
aF0.06407893828429038
aasb.