ccopy_reg
_reconstructor
p0
(cdtree
BoostResult
p1
c__builtin__
object
p2
Ntp3
Rp4
(dp5
S'listCfer'
p6
(lp7
g0
(cdtree
DTree
p8
g2
Ntp9
Rp10
(dp11
S'fDefaultLabel'
p12
I00
sS'dictChildren'
p13
(dp14
I0
g0
(g8
g2
Ntp15
Rp16
(dp17
g12
Nsg13
(dp18
sS'ixAttr'
p19
NsS'fLabel'
p20
I01
sbsI1
g0
(g8
g2
Ntp21
Rp22
(dp23
g12
Nsg13
(dp24
sg19
Nsg20
I01
sbsI2
g0
(g8
g2
Ntp25
Rp26
(dp27
g12
Nsg13
(dp28
sg19
Nsg20
I01
sbsI3
g0
(g8
g2
Ntp29
Rp30
(dp31
g12
Nsg13
(dp32
sg19
Nsg20
I01
sbsI4
g0
(g8
g2
Ntp33
Rp34
(dp35
g12
Nsg13
(dp36
sg19
Nsg20
I01
sbsI5
g0
(g8
g2
Ntp37
Rp38
(dp39
g12
Nsg13
(dp40
sg19
Nsg20
I01
sbsI6
g0
(g8
g2
Ntp41
Rp42
(dp43
g12
Nsg13
(dp44
sg19
Nsg20
I01
sbsI7
g0
(g8
g2
Ntp45
Rp46
(dp47
g12
Nsg13
(dp48
sg19
Nsg20
I01
sbsI8
g0
(g8
g2
Ntp49
Rp50
(dp51
g12
Nsg13
(dp52
sg19
Nsg20
I01
sbsI9
g0
(g8
g2
Ntp53
Rp54
(dp55
g12
Nsg13
(dp56
sg19
Nsg20
I01
sbsI10
g0
(g8
g2
Ntp57
Rp58
(dp59
g12
Nsg13
(dp60
sg19
Nsg20
I01
sbsI11
g0
(g8
g2
Ntp61
Rp62
(dp63
g12
Nsg13
(dp64
sg19
Nsg20
I01
sbsI12
g0
(g8
g2
Ntp65
Rp66
(dp67
g12
Nsg13
(dp68
sg19
Nsg20
I01
sbsI13
g0
(g8
g2
Ntp69
Rp70
(dp71
g12
Nsg13
(dp72
sg19
Nsg20
I01
sbsI14
g0
(g8
g2
Ntp73
Rp74
(dp75
g12
Nsg13
(dp76
sg19
Nsg20
I01
sbsI15
g0
(g8
g2
Ntp77
Rp78
(dp79
g12
Nsg13
(dp80
sg19
Nsg20
I01
sbsI16
g0
(g8
g2
Ntp81
Rp82
(dp83
g12
Nsg13
(dp84
sg19
Nsg20
I01
sbsI17
g0
(g8
g2
Ntp85
Rp86
(dp87
g12
Nsg13
(dp88
sg19
Nsg20
I01
sbsI18
g0
(g8
g2
Ntp89
Rp90
(dp91
g12
Nsg13
(dp92
sg19
Nsg20
I01
sbsI19
g0
(g8
g2
Ntp93
Rp94
(dp95
g12
Nsg13
(dp96
sg19
Nsg20
I01
sbsI20
g0
(g8
g2
Ntp97
Rp98
(dp99
g12
Nsg13
(dp100
sg19
Nsg20
I01
sbsI21
g0
(g8
g2
Ntp101
Rp102
(dp103
g12
Nsg13
(dp104
sg19
Nsg20
I01
sbsI22
g0
(g8
g2
Ntp105
Rp106
(dp107
g12
Nsg13
(dp108
sg19
Nsg20
I01
sbsI23
g0
(g8
g2
Ntp109
Rp110
(dp111
g12
Nsg13
(dp112
sg19
Nsg20
I01
sbsI24
g0
(g8
g2
Ntp113
Rp114
(dp115
g12
Nsg13
(dp116
sg19
Nsg20
I00
sbsI25
g0
(g8
g2
Ntp117
Rp118
(dp119
g12
Nsg13
(dp120
sg19
Nsg20
I00
sbsI26
g0
(g8
g2
Ntp121
Rp122
(dp123
g12
Nsg13
(dp124
sg19
Nsg20
I00
sbsI27
g0
(g8
g2
Ntp125
Rp126
(dp127
g12
Nsg13
(dp128
sg19
Nsg20
I00
sbsI28
g0
(g8
g2
Ntp129
Rp130
(dp131
g12
Nsg13
(dp132
sg19
Nsg20
I01
sbsI29
g0
(g8
g2
Ntp133
Rp134
(dp135
g12
Nsg13
(dp136
sg19
Nsg20
I00
sbsI30
g0
(g8
g2
Ntp137
Rp138
(dp139
g12
Nsg13
(dp140
sg19
Nsg20
I00
sbsI31
g0
(g8
g2
Ntp141
Rp142
(dp143
g12
Nsg13
(dp144
sg19
Nsg20
I00
sbsI32
g0
(g8
g2
Ntp145
Rp146
(dp147
g12
Nsg13
(dp148
sg19
Nsg20
I01
sbsI33
g0
(g8
g2
Ntp149
Rp150
(dp151
g12
Nsg13
(dp152
sg19
Nsg20
I00
sbsI34
g0
(g8
g2
Ntp153
Rp154
(dp155
g12
Nsg13
(dp156
sg19
Nsg20
I00
sbsI35
g0
(g8
g2
Ntp157
Rp158
(dp159
g12
Nsg13
(dp160
sg19
Nsg20
I00
sbsI36
g0
(g8
g2
Ntp161
Rp162
(dp163
g12
Nsg13
(dp164
sg19
Nsg20
I00
sbsI37
g0
(g8
g2
Ntp165
Rp166
(dp167
g12
Nsg13
(dp168
sg19
Nsg20
I00
sbsI38
g0
(g8
g2
Ntp169
Rp170
(dp171
g12
Nsg13
(dp172
sg19
Nsg20
I00
sbsI39
g0
(g8
g2
Ntp173
Rp174
(dp175
g12
Nsg13
(dp176
sg19
Nsg20
I00
sbsI40
g0
(g8
g2
Ntp177
Rp178
(dp179
g12
Nsg13
(dp180
sg19
Nsg20
I00
sbsI41
g0
(g8
g2
Ntp181
Rp182
(dp183
g12
Nsg13
(dp184
sg19
Nsg20
I00
sbsI42
g0
(g8
g2
Ntp185
Rp186
(dp187
g12
Nsg13
(dp188
sg19
Nsg20
I00
sbsI43
g0
(g8
g2
Ntp189
Rp190
(dp191
g12
Nsg13
(dp192
sg19
Nsg20
I00
sbsI44
g0
(g8
g2
Ntp193
Rp194
(dp195
g12
Nsg13
(dp196
sg19
Nsg20
I00
sbsI45
g0
(g8
g2
Ntp197
Rp198
(dp199
g12
Nsg13
(dp200
sg19
Nsg20
I00
sbsI46
g0
(g8
g2
Ntp201
Rp202
(dp203
g12
Nsg13
(dp204
sg19
Nsg20
I00
sbsI47
g0
(g8
g2
Ntp205
Rp206
(dp207
g12
Nsg13
(dp208
sg19
Nsg20
I00
sbsI48
g0
(g8
g2
Ntp209
Rp210
(dp211
g12
Nsg13
(dp212
sg19
Nsg20
I00
sbsI49
g0
(g8
g2
Ntp213
Rp214
(dp215
g12
Nsg13
(dp216
sg19
Nsg20
I00
sbsI50
g0
(g8
g2
Ntp217
Rp218
(dp219
g12
Nsg13
(dp220
sg19
Nsg20
I00
sbsI51
g0
(g8
g2
Ntp221
Rp222
(dp223
g12
Nsg13
(dp224
sg19
Nsg20
I00
sbsI52
g0
(g8
g2
Ntp225
Rp226
(dp227
g12
Nsg13
(dp228
sg19
Nsg20
I00
sbsI53
g0
(g8
g2
Ntp229
Rp230
(dp231
g12
Nsg13
(dp232
sg19
Nsg20
I00
sbsI54
g0
(g8
g2
Ntp233
Rp234
(dp235
g12
Nsg13
(dp236
sg19
Nsg20
I00
sbsI55
g0
(g8
g2
Ntp237
Rp238
(dp239
g12
Nsg13
(dp240
sg19
Nsg20
I00
sbsI56
g0
(g8
g2
Ntp241
Rp242
(dp243
g12
Nsg13
(dp244
sg19
Nsg20
I00
sbsI57
g0
(g8
g2
Ntp245
Rp246
(dp247
g12
Nsg13
(dp248
sg19
Nsg20
I00
sbsI58
g0
(g8
g2
Ntp249
Rp250
(dp251
g12
Nsg13
(dp252
sg19
Nsg20
I00
sbsI59
g0
(g8
g2
Ntp253
Rp254
(dp255
g12
Nsg13
(dp256
sg19
Nsg20
I00
sbsI60
g0
(g8
g2
Ntp257
Rp258
(dp259
g12
Nsg13
(dp260
sg19
Nsg20
I00
sbsI61
g0
(g8
g2
Ntp261
Rp262
(dp263
g12
Nsg13
(dp264
sg19
Nsg20
I00
sbsI62
g0
(g8
g2
Ntp265
Rp266
(dp267
g12
Nsg13
(dp268
sg19
Nsg20
I00
sbsI63
g0
(g8
g2
Ntp269
Rp270
(dp271
g12
Nsg13
(dp272
sg19
Nsg20
I00
sbsI64
g0
(g8
g2
Ntp273
Rp274
(dp275
g12
Nsg13
(dp276
sg19
Nsg20
I00
sbsI65
g0
(g8
g2
Ntp277
Rp278
(dp279
g12
Nsg13
(dp280
sg19
Nsg20
I00
sbsI66
g0
(g8
g2
Ntp281
Rp282
(dp283
g12
Nsg13
(dp284
sg19
Nsg20
I00
sbsI67
g0
(g8
g2
Ntp285
Rp286
(dp287
g12
Nsg13
(dp288
sg19
Nsg20
I00
sbsI68
g0
(g8
g2
Ntp289
Rp290
(dp291
g12
Nsg13
(dp292
sg19
Nsg20
I00
sbsI69
g0
(g8
g2
Ntp293
Rp294
(dp295
g12
Nsg13
(dp296
sg19
Nsg20
I00
sbsI70
g0
(g8
g2
Ntp297
Rp298
(dp299
g12
Nsg13
(dp300
sg19
Nsg20
I00
sbsI71
g0
(g8
g2
Ntp301
Rp302
(dp303
g12
Nsg13
(dp304
sg19
Nsg20
I00
sbsI72
g0
(g8
g2
Ntp305
Rp306
(dp307
g12
Nsg13
(dp308
sg19
Nsg20
I00
sbsI73
g0
(g8
g2
Ntp309
Rp310
(dp311
g12
Nsg13
(dp312
sg19
Nsg20
I00
sbsI74
g0
(g8
g2
Ntp313
Rp314
(dp315
g12
Nsg13
(dp316
sg19
Nsg20
I00
sbsI75
g0
(g8
g2
Ntp317
Rp318
(dp319
g12
Nsg13
(dp320
sg19
Nsg20
I00
sbsI76
g0
(g8
g2
Ntp321
Rp322
(dp323
g12
Nsg13
(dp324
sg19
Nsg20
I00
sbsI77
g0
(g8
g2
Ntp325
Rp326
(dp327
g12
Nsg13
(dp328
sg19
Nsg20
I00
sbsI78
g0
(g8
g2
Ntp329
Rp330
(dp331
g12
Nsg13
(dp332
sg19
Nsg20
I00
sbsI79
g0
(g8
g2
Ntp333
Rp334
(dp335
g12
Nsg13
(dp336
sg19
Nsg20
I00
sbsI80
g0
(g8
g2
Ntp337
Rp338
(dp339
g12
Nsg13
(dp340
sg19
Nsg20
I00
sbsI81
g0
(g8
g2
Ntp341
Rp342
(dp343
g12
Nsg13
(dp344
sg19
Nsg20
I00
sbsI82
g0
(g8
g2
Ntp345
Rp346
(dp347
g12
Nsg13
(dp348
sg19
Nsg20
I00
sbsI83
g0
(g8
g2
Ntp349
Rp350
(dp351
g12
Nsg13
(dp352
sg19
Nsg20
I00
sbsI84
g0
(g8
g2
Ntp353
Rp354
(dp355
g12
Nsg13
(dp356
sg19
Nsg20
I00
sbsI85
g0
(g8
g2
Ntp357
Rp358
(dp359
g12
Nsg13
(dp360
sg19
Nsg20
I00
sbsI86
g0
(g8
g2
Ntp361
Rp362
(dp363
g12
Nsg13
(dp364
sg19
Nsg20
I00
sbsI87
g0
(g8
g2
Ntp365
Rp366
(dp367
g12
Nsg13
(dp368
sg19
Nsg20
I00
sbsI88
g0
(g8
g2
Ntp369
Rp370
(dp371
g12
Nsg13
(dp372
sg19
Nsg20
I00
sbsI89
g0
(g8
g2
Ntp373
Rp374
(dp375
g12
Nsg13
(dp376
sg19
Nsg20
I00
sbsI90
g0
(g8
g2
Ntp377
Rp378
(dp379
g12
Nsg13
(dp380
sg19
Nsg20
I00
sbsI91
g0
(g8
g2
Ntp381
Rp382
(dp383
g12
Nsg13
(dp384
sg19
Nsg20
I00
sbsI92
g0
(g8
g2
Ntp385
Rp386
(dp387
g12
Nsg13
(dp388
sg19
Nsg20
I00
sbsI93
g0
(g8
g2
Ntp389
Rp390
(dp391
g12
Nsg13
(dp392
sg19
Nsg20
I00
sbsI94
g0
(g8
g2
Ntp393
Rp394
(dp395
g12
Nsg13
(dp396
sg19
Nsg20
I00
sbsI95
g0
(g8
g2
Ntp397
Rp398
(dp399
g12
Nsg13
(dp400
sg19
Nsg20
I00
sbsI96
g0
(g8
g2
Ntp401
Rp402
(dp403
g12
Nsg13
(dp404
sg19
Nsg20
I00
sbsI97
g0
(g8
g2
Ntp405
Rp406
(dp407
g12
Nsg13
(dp408
sg19
Nsg20
I00
sbsI98
g0
(g8
g2
Ntp409
Rp410
(dp411
g12
Nsg13
(dp412
sg19
Nsg20
I00
sbsI99
g0
(g8
g2
Ntp413
Rp414
(dp415
g12
Nsg13
(dp416
sg19
Nsg20
I00
sbsI100
g0
(g8
g2
Ntp417
Rp418
(dp419
g12
Nsg13
(dp420
sg19
Nsg20
I00
sbsI101
g0
(g8
g2
Ntp421
Rp422
(dp423
g12
Nsg13
(dp424
sg19
Nsg20
I00
sbsI102
g0
(g8
g2
Ntp425
Rp426
(dp427
g12
Nsg13
(dp428
sg19
Nsg20
I00
sbsI103
g0
(g8
g2
Ntp429
Rp430
(dp431
g12
Nsg13
(dp432
sg19
Nsg20
I00
sbsI104
g0
(g8
g2
Ntp433
Rp434
(dp435
g12
Nsg13
(dp436
sg19
Nsg20
I00
sbsI105
g0
(g8
g2
Ntp437
Rp438
(dp439
g12
Nsg13
(dp440
sg19
Nsg20
I00
sbsI106
g0
(g8
g2
Ntp441
Rp442
(dp443
g12
Nsg13
(dp444
sg19
Nsg20
I00
sbsI107
g0
(g8
g2
Ntp445
Rp446
(dp447
g12
Nsg13
(dp448
sg19
Nsg20
I00
sbsI108
g0
(g8
g2
Ntp449
Rp450
(dp451
g12
Nsg13
(dp452
sg19
Nsg20
I00
sbsI109
g0
(g8
g2
Ntp453
Rp454
(dp455
g12
Nsg13
(dp456
sg19
Nsg20
I00
sbsI110
g0
(g8
g2
Ntp457
Rp458
(dp459
g12
Nsg13
(dp460
sg19
Nsg20
I00
sbsI111
g0
(g8
g2
Ntp461
Rp462
(dp463
g12
Nsg13
(dp464
sg19
Nsg20
I00
sbsI112
g0
(g8
g2
Ntp465
Rp466
(dp467
g12
Nsg13
(dp468
sg19
Nsg20
I00
sbsI113
g0
(g8
g2
Ntp469
Rp470
(dp471
g12
Nsg13
(dp472
sg19
Nsg20
I00
sbsI114
g0
(g8
g2
Ntp473
Rp474
(dp475
g12
Nsg13
(dp476
sg19
Nsg20
I00
sbsI115
g0
(g8
g2
Ntp477
Rp478
(dp479
g12
Nsg13
(dp480
sg19
Nsg20
I00
sbsI116
g0
(g8
g2
Ntp481
Rp482
(dp483
g12
Nsg13
(dp484
sg19
Nsg20
I00
sbsI117
g0
(g8
g2
Ntp485
Rp486
(dp487
g12
Nsg13
(dp488
sg19
Nsg20
I00
sbsI118
g0
(g8
g2
Ntp489
Rp490
(dp491
g12
Nsg13
(dp492
sg19
Nsg20
I00
sbsI119
g0
(g8
g2
Ntp493
Rp494
(dp495
g12
Nsg13
(dp496
sg19
Nsg20
I00
sbsI120
g0
(g8
g2
Ntp497
Rp498
(dp499
g12
Nsg13
(dp500
sg19
Nsg20
I00
sbsI121
g0
(g8
g2
Ntp501
Rp502
(dp503
g12
Nsg13
(dp504
sg19
Nsg20
I00
sbsI122
g0
(g8
g2
Ntp505
Rp506
(dp507
g12
Nsg13
(dp508
sg19
Nsg20
I00
sbsI123
g0
(g8
g2
Ntp509
Rp510
(dp511
g12
Nsg13
(dp512
sg19
Nsg20
I00
sbsI124
g0
(g8
g2
Ntp513
Rp514
(dp515
g12
Nsg13
(dp516
sg19
Nsg20
I00
sbsI125
g0
(g8
g2
Ntp517
Rp518
(dp519
g12
Nsg13
(dp520
sg19
Nsg20
I00
sbsI126
g0
(g8
g2
Ntp521
Rp522
(dp523
g12
Nsg13
(dp524
sg19
Nsg20
I00
sbsI127
g0
(g8
g2
Ntp525
Rp526
(dp527
g12
Nsg13
(dp528
sg19
Nsg20
I00
sbsI128
g0
(g8
g2
Ntp529
Rp530
(dp531
g12
Nsg13
(dp532
sg19
Nsg20
I00
sbsI129
g0
(g8
g2
Ntp533
Rp534
(dp535
g12
Nsg13
(dp536
sg19
Nsg20
I00
sbsI130
g0
(g8
g2
Ntp537
Rp538
(dp539
g12
Nsg13
(dp540
sg19
Nsg20
I00
sbsI131
g0
(g8
g2
Ntp541
Rp542
(dp543
g12
Nsg13
(dp544
sg19
Nsg20
I00
sbsI132
g0
(g8
g2
Ntp545
Rp546
(dp547
g12
Nsg13
(dp548
sg19
Nsg20
I00
sbsI133
g0
(g8
g2
Ntp549
Rp550
(dp551
g12
Nsg13
(dp552
sg19
Nsg20
I00
sbsI134
g0
(g8
g2
Ntp553
Rp554
(dp555
g12
Nsg13
(dp556
sg19
Nsg20
I00
sbsI135
g0
(g8
g2
Ntp557
Rp558
(dp559
g12
Nsg13
(dp560
sg19
Nsg20
I00
sbsI136
g0
(g8
g2
Ntp561
Rp562
(dp563
g12
Nsg13
(dp564
sg19
Nsg20
I00
sbsI137
g0
(g8
g2
Ntp565
Rp566
(dp567
g12
Nsg13
(dp568
sg19
Nsg20
I00
sbsI138
g0
(g8
g2
Ntp569
Rp570
(dp571
g12
Nsg13
(dp572
sg19
Nsg20
I00
sbsI139
g0
(g8
g2
Ntp573
Rp574
(dp575
g12
Nsg13
(dp576
sg19
Nsg20
I00
sbsI140
g0
(g8
g2
Ntp577
Rp578
(dp579
g12
Nsg13
(dp580
sg19
Nsg20
I00
sbsI141
g0
(g8
g2
Ntp581
Rp582
(dp583
g12
Nsg13
(dp584
sg19
Nsg20
I00
sbsI142
g0
(g8
g2
Ntp585
Rp586
(dp587
g12
Nsg13
(dp588
sg19
Nsg20
I01
sbsI144
g0
(g8
g2
Ntp589
Rp590
(dp591
g12
Nsg13
(dp592
sg19
Nsg20
I00
sbsI145
g0
(g8
g2
Ntp593
Rp594
(dp595
g12
Nsg13
(dp596
sg19
Nsg20
I00
sbsI146
g0
(g8
g2
Ntp597
Rp598
(dp599
g12
Nsg13
(dp600
sg19
Nsg20
I00
sbsI147
g0
(g8
g2
Ntp601
Rp602
(dp603
g12
Nsg13
(dp604
sg19
Nsg20
I00
sbsI148
g0
(g8
g2
Ntp605
Rp606
(dp607
g12
Nsg13
(dp608
sg19
Nsg20
I00
sbsI149
g0
(g8
g2
Ntp609
Rp610
(dp611
g12
Nsg13
(dp612
sg19
Nsg20
I00
sbsI150
g0
(g8
g2
Ntp613
Rp614
(dp615
g12
Nsg13
(dp616
sg19
Nsg20
I00
sbsI151
g0
(g8
g2
Ntp617
Rp618
(dp619
g12
Nsg13
(dp620
sg19
Nsg20
I00
sbsI152
g0
(g8
g2
Ntp621
Rp622
(dp623
g12
Nsg13
(dp624
sg19
Nsg20
I00
sbsI153
g0
(g8
g2
Ntp625
Rp626
(dp627
g12
Nsg13
(dp628
sg19
Nsg20
I00
sbsI154
g0
(g8
g2
Ntp629
Rp630
(dp631
g12
Nsg13
(dp632
sg19
Nsg20
I01
sbsI157
g0
(g8
g2
Ntp633
Rp634
(dp635
g12
Nsg13
(dp636
sg19
Nsg20
I00
sbsI160
g0
(g8
g2
Ntp637
Rp638
(dp639
g12
Nsg13
(dp640
sg19
Nsg20
I00
sbsI161
g0
(g8
g2
Ntp641
Rp642
(dp643
g12
Nsg13
(dp644
sg19
Nsg20
I00
sbsI162
g0
(g8
g2
Ntp645
Rp646
(dp647
g12
Nsg13
(dp648
sg19
Nsg20
I00
sbsI168
g0
(g8
g2
Ntp649
Rp650
(dp651
g12
Nsg13
(dp652
sg19
Nsg20
I00
sbsI169
g0
(g8
g2
Ntp653
Rp654
(dp655
g12
Nsg13
(dp656
sg19
Nsg20
I01
sbsI170
g0
(g8
g2
Ntp657
Rp658
(dp659
g12
Nsg13
(dp660
sg19
Nsg20
I00
sbsI172
g0
(g8
g2
Ntp661
Rp662
(dp663
g12
Nsg13
(dp664
sg19
Nsg20
I00
sbsI184
g0
(g8
g2
Ntp665
Rp666
(dp667
g12
Nsg13
(dp668
sg19
Nsg20
I00
sbsI189
g0
(g8
g2
Ntp669
Rp670
(dp671
g12
Nsg13
(dp672
sg19
Nsg20
I00
sbssg19
I36
sg20
Nsbag0
(g8
g2
Ntp673
Rp674
(dp675
g12
I01
sg13
(dp676
I0
g0
(g8
g2
Ntp677
Rp678
(dp679
g12
Nsg13
(dp680
sg19
Nsg20
I00
sbsI1
g0
(g8
g2
Ntp681
Rp682
(dp683
g12
Nsg13
(dp684
sg19
Nsg20
I01
sbsI2
g0
(g8
g2
Ntp685
Rp686
(dp687
g12
Nsg13
(dp688
sg19
Nsg20
I01
sbsI3
g0
(g8
g2
Ntp689
Rp690
(dp691
g12
Nsg13
(dp692
sg19
Nsg20
I01
sbsI4
g0
(g8
g2
Ntp693
Rp694
(dp695
g12
Nsg13
(dp696
sg19
Nsg20
I01
sbsI5
g0
(g8
g2
Ntp697
Rp698
(dp699
g12
Nsg13
(dp700
sg19
Nsg20
I01
sbsI6
g0
(g8
g2
Ntp701
Rp702
(dp703
g12
Nsg13
(dp704
sg19
Nsg20
I01
sbsI7
g0
(g8
g2
Ntp705
Rp706
(dp707
g12
Nsg13
(dp708
sg19
Nsg20
I01
sbsI8
g0
(g8
g2
Ntp709
Rp710
(dp711
g12
Nsg13
(dp712
sg19
Nsg20
I01
sbsI9
g0
(g8
g2
Ntp713
Rp714
(dp715
g12
Nsg13
(dp716
sg19
Nsg20
I01
sbsI10
g0
(g8
g2
Ntp717
Rp718
(dp719
g12
Nsg13
(dp720
sg19
Nsg20
I01
sbsI11
g0
(g8
g2
Ntp721
Rp722
(dp723
g12
Nsg13
(dp724
sg19
Nsg20
I01
sbsI12
g0
(g8
g2
Ntp725
Rp726
(dp727
g12
Nsg13
(dp728
sg19
Nsg20
I01
sbsI13
g0
(g8
g2
Ntp729
Rp730
(dp731
g12
Nsg13
(dp732
sg19
Nsg20
I01
sbsI14
g0
(g8
g2
Ntp733
Rp734
(dp735
g12
Nsg13
(dp736
sg19
Nsg20
I01
sbsI15
g0
(g8
g2
Ntp737
Rp738
(dp739
g12
Nsg13
(dp740
sg19
Nsg20
I01
sbsI16
g0
(g8
g2
Ntp741
Rp742
(dp743
g12
Nsg13
(dp744
sg19
Nsg20
I01
sbsI17
g0
(g8
g2
Ntp745
Rp746
(dp747
g12
Nsg13
(dp748
sg19
Nsg20
I01
sbsI18
g0
(g8
g2
Ntp749
Rp750
(dp751
g12
Nsg13
(dp752
sg19
Nsg20
I01
sbsI19
g0
(g8
g2
Ntp753
Rp754
(dp755
g12
Nsg13
(dp756
sg19
Nsg20
I00
sbsI20
g0
(g8
g2
Ntp757
Rp758
(dp759
g12
Nsg13
(dp760
sg19
Nsg20
I00
sbsI21
g0
(g8
g2
Ntp761
Rp762
(dp763
g12
Nsg13
(dp764
sg19
Nsg20
I00
sbsI22
g0
(g8
g2
Ntp765
Rp766
(dp767
g12
Nsg13
(dp768
sg19
Nsg20
I00
sbsI23
g0
(g8
g2
Ntp769
Rp770
(dp771
g12
Nsg13
(dp772
sg19
Nsg20
I00
sbsI24
g0
(g8
g2
Ntp773
Rp774
(dp775
g12
Nsg13
(dp776
sg19
Nsg20
I01
sbsI25
g0
(g8
g2
Ntp777
Rp778
(dp779
g12
Nsg13
(dp780
sg19
Nsg20
I01
sbsI26
g0
(g8
g2
Ntp781
Rp782
(dp783
g12
Nsg13
(dp784
sg19
Nsg20
I01
sbsI27
g0
(g8
g2
Ntp785
Rp786
(dp787
g12
Nsg13
(dp788
sg19
Nsg20
I01
sbsI28
g0
(g8
g2
Ntp789
Rp790
(dp791
g12
Nsg13
(dp792
sg19
Nsg20
I00
sbsI29
g0
(g8
g2
Ntp793
Rp794
(dp795
g12
Nsg13
(dp796
sg19
Nsg20
I01
sbsI30
g0
(g8
g2
Ntp797
Rp798
(dp799
g12
Nsg13
(dp800
sg19
Nsg20
I01
sbsI31
g0
(g8
g2
Ntp801
Rp802
(dp803
g12
Nsg13
(dp804
sg19
Nsg20
I01
sbsI32
g0
(g8
g2
Ntp805
Rp806
(dp807
g12
Nsg13
(dp808
sg19
Nsg20
I00
sbsI33
g0
(g8
g2
Ntp809
Rp810
(dp811
g12
Nsg13
(dp812
sg19
Nsg20
I01
sbsI34
g0
(g8
g2
Ntp813
Rp814
(dp815
g12
Nsg13
(dp816
sg19
Nsg20
I01
sbsI35
g0
(g8
g2
Ntp817
Rp818
(dp819
g12
Nsg13
(dp820
sg19
Nsg20
I01
sbsI36
g0
(g8
g2
Ntp821
Rp822
(dp823
g12
Nsg13
(dp824
sg19
Nsg20
I01
sbsI37
g0
(g8
g2
Ntp825
Rp826
(dp827
g12
Nsg13
(dp828
sg19
Nsg20
I01
sbsI38
g0
(g8
g2
Ntp829
Rp830
(dp831
g12
Nsg13
(dp832
sg19
Nsg20
I01
sbsI39
g0
(g8
g2
Ntp833
Rp834
(dp835
g12
Nsg13
(dp836
sg19
Nsg20
I01
sbsI40
g0
(g8
g2
Ntp837
Rp838
(dp839
g12
Nsg13
(dp840
sg19
Nsg20
I01
sbsI41
g0
(g8
g2
Ntp841
Rp842
(dp843
g12
Nsg13
(dp844
sg19
Nsg20
I01
sbsI42
g0
(g8
g2
Ntp845
Rp846
(dp847
g12
Nsg13
(dp848
sg19
Nsg20
I01
sbsI43
g0
(g8
g2
Ntp849
Rp850
(dp851
g12
Nsg13
(dp852
sg19
Nsg20
I01
sbsI44
g0
(g8
g2
Ntp853
Rp854
(dp855
g12
Nsg13
(dp856
sg19
Nsg20
I01
sbsI45
g0
(g8
g2
Ntp857
Rp858
(dp859
g12
Nsg13
(dp860
sg19
Nsg20
I00
sbsI46
g0
(g8
g2
Ntp861
Rp862
(dp863
g12
Nsg13
(dp864
sg19
Nsg20
I01
sbsI47
g0
(g8
g2
Ntp865
Rp866
(dp867
g12
Nsg13
(dp868
sg19
Nsg20
I00
sbsI48
g0
(g8
g2
Ntp869
Rp870
(dp871
g12
Nsg13
(dp872
sg19
Nsg20
I01
sbsI49
g0
(g8
g2
Ntp873
Rp874
(dp875
g12
Nsg13
(dp876
sg19
Nsg20
I01
sbsI50
g0
(g8
g2
Ntp877
Rp878
(dp879
g12
Nsg13
(dp880
sg19
Nsg20
I01
sbsI51
g0
(g8
g2
Ntp881
Rp882
(dp883
g12
Nsg13
(dp884
sg19
Nsg20
I00
sbsI52
g0
(g8
g2
Ntp885
Rp886
(dp887
g12
Nsg13
(dp888
sg19
Nsg20
I01
sbsI53
g0
(g8
g2
Ntp889
Rp890
(dp891
g12
Nsg13
(dp892
sg19
Nsg20
I00
sbsI54
g0
(g8
g2
Ntp893
Rp894
(dp895
g12
Nsg13
(dp896
sg19
Nsg20
I00
sbsI55
g0
(g8
g2
Ntp897
Rp898
(dp899
g12
Nsg13
(dp900
sg19
Nsg20
I00
sbsI56
g0
(g8
g2
Ntp901
Rp902
(dp903
g12
Nsg13
(dp904
sg19
Nsg20
I00
sbsI57
g0
(g8
g2
Ntp905
Rp906
(dp907
g12
Nsg13
(dp908
sg19
Nsg20
I00
sbsI58
g0
(g8
g2
Ntp909
Rp910
(dp911
g12
Nsg13
(dp912
sg19
Nsg20
I00
sbsI59
g0
(g8
g2
Ntp913
Rp914
(dp915
g12
Nsg13
(dp916
sg19
Nsg20
I00
sbsI60
g0
(g8
g2
Ntp917
Rp918
(dp919
g12
Nsg13
(dp920
sg19
Nsg20
I00
sbsI61
g0
(g8
g2
Ntp921
Rp922
(dp923
g12
Nsg13
(dp924
sg19
Nsg20
I00
sbsI62
g0
(g8
g2
Ntp925
Rp926
(dp927
g12
Nsg13
(dp928
sg19
Nsg20
I00
sbsI63
g0
(g8
g2
Ntp929
Rp930
(dp931
g12
Nsg13
(dp932
sg19
Nsg20
I00
sbsI64
g0
(g8
g2
Ntp933
Rp934
(dp935
g12
Nsg13
(dp936
sg19
Nsg20
I00
sbsI65
g0
(g8
g2
Ntp937
Rp938
(dp939
g12
Nsg13
(dp940
sg19
Nsg20
I01
sbsI66
g0
(g8
g2
Ntp941
Rp942
(dp943
g12
Nsg13
(dp944
sg19
Nsg20
I01
sbsI67
g0
(g8
g2
Ntp945
Rp946
(dp947
g12
Nsg13
(dp948
sg19
Nsg20
I01
sbsI68
g0
(g8
g2
Ntp949
Rp950
(dp951
g12
Nsg13
(dp952
sg19
Nsg20
I00
sbsI69
g0
(g8
g2
Ntp953
Rp954
(dp955
g12
Nsg13
(dp956
sg19
Nsg20
I00
sbsI70
g0
(g8
g2
Ntp957
Rp958
(dp959
g12
Nsg13
(dp960
sg19
Nsg20
I01
sbsI71
g0
(g8
g2
Ntp961
Rp962
(dp963
g12
Nsg13
(dp964
sg19
Nsg20
I00
sbsI72
g0
(g8
g2
Ntp965
Rp966
(dp967
g12
Nsg13
(dp968
sg19
Nsg20
I00
sbsI73
g0
(g8
g2
Ntp969
Rp970
(dp971
g12
Nsg13
(dp972
sg19
Nsg20
I00
sbsI74
g0
(g8
g2
Ntp973
Rp974
(dp975
g12
Nsg13
(dp976
sg19
Nsg20
I00
sbsI75
g0
(g8
g2
Ntp977
Rp978
(dp979
g12
Nsg13
(dp980
sg19
Nsg20
I01
sbsI76
g0
(g8
g2
Ntp981
Rp982
(dp983
g12
Nsg13
(dp984
sg19
Nsg20
I00
sbsI77
g0
(g8
g2
Ntp985
Rp986
(dp987
g12
Nsg13
(dp988
sg19
Nsg20
I00
sbsI78
g0
(g8
g2
Ntp989
Rp990
(dp991
g12
Nsg13
(dp992
sg19
Nsg20
I00
sbsI79
g0
(g8
g2
Ntp993
Rp994
(dp995
g12
Nsg13
(dp996
sg19
Nsg20
I00
sbsI80
g0
(g8
g2
Ntp997
Rp998
(dp999
g12
Nsg13
(dp1000
sg19
Nsg20
I00
sbsI81
g0
(g8
g2
Ntp1001
Rp1002
(dp1003
g12
Nsg13
(dp1004
sg19
Nsg20
I00
sbsI82
g0
(g8
g2
Ntp1005
Rp1006
(dp1007
g12
Nsg13
(dp1008
sg19
Nsg20
I01
sbsI83
g0
(g8
g2
Ntp1009
Rp1010
(dp1011
g12
Nsg13
(dp1012
sg19
Nsg20
I00
sbsI84
g0
(g8
g2
Ntp1013
Rp1014
(dp1015
g12
Nsg13
(dp1016
sg19
Nsg20
I01
sbsI85
g0
(g8
g2
Ntp1017
Rp1018
(dp1019
g12
Nsg13
(dp1020
sg19
Nsg20
I00
sbsI86
g0
(g8
g2
Ntp1021
Rp1022
(dp1023
g12
Nsg13
(dp1024
sg19
Nsg20
I00
sbsI87
g0
(g8
g2
Ntp1025
Rp1026
(dp1027
g12
Nsg13
(dp1028
sg19
Nsg20
I00
sbsI88
g0
(g8
g2
Ntp1029
Rp1030
(dp1031
g12
Nsg13
(dp1032
sg19
Nsg20
I00
sbsI89
g0
(g8
g2
Ntp1033
Rp1034
(dp1035
g12
Nsg13
(dp1036
sg19
Nsg20
I00
sbsI90
g0
(g8
g2
Ntp1037
Rp1038
(dp1039
g12
Nsg13
(dp1040
sg19
Nsg20
I00
sbsI91
g0
(g8
g2
Ntp1041
Rp1042
(dp1043
g12
Nsg13
(dp1044
sg19
Nsg20
I00
sbsI92
g0
(g8
g2
Ntp1045
Rp1046
(dp1047
g12
Nsg13
(dp1048
sg19
Nsg20
I00
sbsI93
g0
(g8
g2
Ntp1049
Rp1050
(dp1051
g12
Nsg13
(dp1052
sg19
Nsg20
I00
sbsI94
g0
(g8
g2
Ntp1053
Rp1054
(dp1055
g12
Nsg13
(dp1056
sg19
Nsg20
I00
sbsI95
g0
(g8
g2
Ntp1057
Rp1058
(dp1059
g12
Nsg13
(dp1060
sg19
Nsg20
I01
sbsI96
g0
(g8
g2
Ntp1061
Rp1062
(dp1063
g12
Nsg13
(dp1064
sg19
Nsg20
I00
sbsI97
g0
(g8
g2
Ntp1065
Rp1066
(dp1067
g12
Nsg13
(dp1068
sg19
Nsg20
I00
sbsI98
g0
(g8
g2
Ntp1069
Rp1070
(dp1071
g12
Nsg13
(dp1072
sg19
Nsg20
I00
sbsI99
g0
(g8
g2
Ntp1073
Rp1074
(dp1075
g12
Nsg13
(dp1076
sg19
Nsg20
I00
sbsI100
g0
(g8
g2
Ntp1077
Rp1078
(dp1079
g12
Nsg13
(dp1080
sg19
Nsg20
I00
sbsI101
g0
(g8
g2
Ntp1081
Rp1082
(dp1083
g12
Nsg13
(dp1084
sg19
Nsg20
I00
sbsI102
g0
(g8
g2
Ntp1085
Rp1086
(dp1087
g12
Nsg13
(dp1088
sg19
Nsg20
I00
sbsI103
g0
(g8
g2
Ntp1089
Rp1090
(dp1091
g12
Nsg13
(dp1092
sg19
Nsg20
I00
sbsI104
g0
(g8
g2
Ntp1093
Rp1094
(dp1095
g12
Nsg13
(dp1096
sg19
Nsg20
I00
sbsI105
g0
(g8
g2
Ntp1097
Rp1098
(dp1099
g12
Nsg13
(dp1100
sg19
Nsg20
I00
sbsI106
g0
(g8
g2
Ntp1101
Rp1102
(dp1103
g12
Nsg13
(dp1104
sg19
Nsg20
I00
sbsI107
g0
(g8
g2
Ntp1105
Rp1106
(dp1107
g12
Nsg13
(dp1108
sg19
Nsg20
I00
sbsI108
g0
(g8
g2
Ntp1109
Rp1110
(dp1111
g12
Nsg13
(dp1112
sg19
Nsg20
I00
sbsI109
g0
(g8
g2
Ntp1113
Rp1114
(dp1115
g12
Nsg13
(dp1116
sg19
Nsg20
I00
sbsI110
g0
(g8
g2
Ntp1117
Rp1118
(dp1119
g12
Nsg13
(dp1120
sg19
Nsg20
I00
sbsI111
g0
(g8
g2
Ntp1121
Rp1122
(dp1123
g12
Nsg13
(dp1124
sg19
Nsg20
I01
sbsI112
g0
(g8
g2
Ntp1125
Rp1126
(dp1127
g12
Nsg13
(dp1128
sg19
Nsg20
I00
sbsI113
g0
(g8
g2
Ntp1129
Rp1130
(dp1131
g12
Nsg13
(dp1132
sg19
Nsg20
I00
sbsI114
g0
(g8
g2
Ntp1133
Rp1134
(dp1135
g12
Nsg13
(dp1136
sg19
Nsg20
I00
sbsI115
g0
(g8
g2
Ntp1137
Rp1138
(dp1139
g12
Nsg13
(dp1140
sg19
Nsg20
I00
sbsI116
g0
(g8
g2
Ntp1141
Rp1142
(dp1143
g12
Nsg13
(dp1144
sg19
Nsg20
I00
sbsI117
g0
(g8
g2
Ntp1145
Rp1146
(dp1147
g12
Nsg13
(dp1148
sg19
Nsg20
I01
sbsI118
g0
(g8
g2
Ntp1149
Rp1150
(dp1151
g12
Nsg13
(dp1152
sg19
Nsg20
I00
sbsI119
g0
(g8
g2
Ntp1153
Rp1154
(dp1155
g12
Nsg13
(dp1156
sg19
Nsg20
I00
sbsI120
g0
(g8
g2
Ntp1157
Rp1158
(dp1159
g12
Nsg13
(dp1160
sg19
Nsg20
I00
sbsI121
g0
(g8
g2
Ntp1161
Rp1162
(dp1163
g12
Nsg13
(dp1164
sg19
Nsg20
I00
sbsI122
g0
(g8
g2
Ntp1165
Rp1166
(dp1167
g12
Nsg13
(dp1168
sg19
Nsg20
I01
sbsI123
g0
(g8
g2
Ntp1169
Rp1170
(dp1171
g12
Nsg13
(dp1172
sg19
Nsg20
I00
sbsI124
g0
(g8
g2
Ntp1173
Rp1174
(dp1175
g12
Nsg13
(dp1176
sg19
Nsg20
I00
sbsI125
g0
(g8
g2
Ntp1177
Rp1178
(dp1179
g12
Nsg13
(dp1180
sg19
Nsg20
I00
sbsI126
g0
(g8
g2
Ntp1181
Rp1182
(dp1183
g12
Nsg13
(dp1184
sg19
Nsg20
I00
sbsI127
g0
(g8
g2
Ntp1185
Rp1186
(dp1187
g12
Nsg13
(dp1188
sg19
Nsg20
I00
sbsI128
g0
(g8
g2
Ntp1189
Rp1190
(dp1191
g12
Nsg13
(dp1192
sg19
Nsg20
I00
sbsI129
g0
(g8
g2
Ntp1193
Rp1194
(dp1195
g12
Nsg13
(dp1196
sg19
Nsg20
I00
sbsI130
g0
(g8
g2
Ntp1197
Rp1198
(dp1199
g12
Nsg13
(dp1200
sg19
Nsg20
I00
sbsI131
g0
(g8
g2
Ntp1201
Rp1202
(dp1203
g12
Nsg13
(dp1204
sg19
Nsg20
I00
sbsI132
g0
(g8
g2
Ntp1205
Rp1206
(dp1207
g12
Nsg13
(dp1208
sg19
Nsg20
I00
sbsI133
g0
(g8
g2
Ntp1209
Rp1210
(dp1211
g12
Nsg13
(dp1212
sg19
Nsg20
I00
sbsI134
g0
(g8
g2
Ntp1213
Rp1214
(dp1215
g12
Nsg13
(dp1216
sg19
Nsg20
I00
sbsI135
g0
(g8
g2
Ntp1217
Rp1218
(dp1219
g12
Nsg13
(dp1220
sg19
Nsg20
I00
sbsI136
g0
(g8
g2
Ntp1221
Rp1222
(dp1223
g12
Nsg13
(dp1224
sg19
Nsg20
I00
sbsI137
g0
(g8
g2
Ntp1225
Rp1226
(dp1227
g12
Nsg13
(dp1228
sg19
Nsg20
I00
sbsI138
g0
(g8
g2
Ntp1229
Rp1230
(dp1231
g12
Nsg13
(dp1232
sg19
Nsg20
I00
sbsI139
g0
(g8
g2
Ntp1233
Rp1234
(dp1235
g12
Nsg13
(dp1236
sg19
Nsg20
I00
sbsI140
g0
(g8
g2
Ntp1237
Rp1238
(dp1239
g12
Nsg13
(dp1240
sg19
Nsg20
I00
sbsI141
g0
(g8
g2
Ntp1241
Rp1242
(dp1243
g12
Nsg13
(dp1244
sg19
Nsg20
I00
sbsI142
g0
(g8
g2
Ntp1245
Rp1246
(dp1247
g12
Nsg13
(dp1248
sg19
Nsg20
I01
sbsI144
g0
(g8
g2
Ntp1249
Rp1250
(dp1251
g12
Nsg13
(dp1252
sg19
Nsg20
I00
sbsI145
g0
(g8
g2
Ntp1253
Rp1254
(dp1255
g12
Nsg13
(dp1256
sg19
Nsg20
I01
sbsI146
g0
(g8
g2
Ntp1257
Rp1258
(dp1259
g12
Nsg13
(dp1260
sg19
Nsg20
I00
sbsI147
g0
(g8
g2
Ntp1261
Rp1262
(dp1263
g12
Nsg13
(dp1264
sg19
Nsg20
I00
sbsI148
g0
(g8
g2
Ntp1265
Rp1266
(dp1267
g12
Nsg13
(dp1268
sg19
Nsg20
I00
sbsI149
g0
(g8
g2
Ntp1269
Rp1270
(dp1271
g12
Nsg13
(dp1272
sg19
Nsg20
I00
sbsI150
g0
(g8
g2
Ntp1273
Rp1274
(dp1275
g12
Nsg13
(dp1276
sg19
Nsg20
I00
sbsI151
g0
(g8
g2
Ntp1277
Rp1278
(dp1279
g12
Nsg13
(dp1280
sg19
Nsg20
I00
sbsI152
g0
(g8
g2
Ntp1281
Rp1282
(dp1283
g12
Nsg13
(dp1284
sg19
Nsg20
I00
sbsI153
g0
(g8
g2
Ntp1285
Rp1286
(dp1287
g12
Nsg13
(dp1288
sg19
Nsg20
I00
sbsI154
g0
(g8
g2
Ntp1289
Rp1290
(dp1291
g12
Nsg13
(dp1292
sg19
Nsg20
I01
sbsI157
g0
(g8
g2
Ntp1293
Rp1294
(dp1295
g12
Nsg13
(dp1296
sg19
Nsg20
I00
sbsI160
g0
(g8
g2
Ntp1297
Rp1298
(dp1299
g12
Nsg13
(dp1300
sg19
Nsg20
I00
sbsI161
g0
(g8
g2
Ntp1301
Rp1302
(dp1303
g12
Nsg13
(dp1304
sg19
Nsg20
I00
sbsI162
g0
(g8
g2
Ntp1305
Rp1306
(dp1307
g12
Nsg13
(dp1308
sg19
Nsg20
I00
sbsI168
g0
(g8
g2
Ntp1309
Rp1310
(dp1311
g12
Nsg13
(dp1312
sg19
Nsg20
I00
sbsI169
g0
(g8
g2
Ntp1313
Rp1314
(dp1315
g12
Nsg13
(dp1316
sg19
Nsg20
I01
sbsI170
g0
(g8
g2
Ntp1317
Rp1318
(dp1319
g12
Nsg13
(dp1320
sg19
Nsg20
I01
sbsI172
g0
(g8
g2
Ntp1321
Rp1322
(dp1323
g12
Nsg13
(dp1324
sg19
Nsg20
I00
sbsI184
g0
(g8
g2
Ntp1325
Rp1326
(dp1327
g12
Nsg13
(dp1328
sg19
Nsg20
I00
sbsI189
g0
(g8
g2
Ntp1329
Rp1330
(dp1331
g12
Nsg13
(dp1332
sg19
Nsg20
I00
sbssg19
I36
sg20
Nsbag0
(g8
g2
Ntp1333
Rp1334
(dp1335
g12
I00
sg13
(dp1336
I0
g0
(g8
g2
Ntp1337
Rp1338
(dp1339
g12
Nsg13
(dp1340
sg19
Nsg20
I01
sbsI1
g0
(g8
g2
Ntp1341
Rp1342
(dp1343
g12
Nsg13
(dp1344
sg19
Nsg20
I01
sbsI2
g0
(g8
g2
Ntp1345
Rp1346
(dp1347
g12
Nsg13
(dp1348
sg19
Nsg20
I01
sbsI3
g0
(g8
g2
Ntp1349
Rp1350
(dp1351
g12
Nsg13
(dp1352
sg19
Nsg20
I01
sbsI4
g0
(g8
g2
Ntp1353
Rp1354
(dp1355
g12
Nsg13
(dp1356
sg19
Nsg20
I01
sbsI5
g0
(g8
g2
Ntp1357
Rp1358
(dp1359
g12
Nsg13
(dp1360
sg19
Nsg20
I00
sbsI6
g0
(g8
g2
Ntp1361
Rp1362
(dp1363
g12
Nsg13
(dp1364
sg19
Nsg20
I01
sbsI7
g0
(g8
g2
Ntp1365
Rp1366
(dp1367
g12
Nsg13
(dp1368
sg19
Nsg20
I01
sbsI8
g0
(g8
g2
Ntp1369
Rp1370
(dp1371
g12
Nsg13
(dp1372
sg19
Nsg20
I01
sbsI9
g0
(g8
g2
Ntp1373
Rp1374
(dp1375
g12
Nsg13
(dp1376
sg19
Nsg20
I01
sbsI10
g0
(g8
g2
Ntp1377
Rp1378
(dp1379
g12
Nsg13
(dp1380
sg19
Nsg20
I01
sbsI11
g0
(g8
g2
Ntp1381
Rp1382
(dp1383
g12
Nsg13
(dp1384
sg19
Nsg20
I01
sbsI12
g0
(g8
g2
Ntp1385
Rp1386
(dp1387
g12
Nsg13
(dp1388
sg19
Nsg20
I00
sbsI13
g0
(g8
g2
Ntp1389
Rp1390
(dp1391
g12
Nsg13
(dp1392
sg19
Nsg20
I00
sbsI14
g0
(g8
g2
Ntp1393
Rp1394
(dp1395
g12
Nsg13
(dp1396
sg19
Nsg20
I00
sbsI15
g0
(g8
g2
Ntp1397
Rp1398
(dp1399
g12
Nsg13
(dp1400
sg19
Nsg20
I00
sbsI16
g0
(g8
g2
Ntp1401
Rp1402
(dp1403
g12
Nsg13
(dp1404
sg19
Nsg20
I00
sbsI17
g0
(g8
g2
Ntp1405
Rp1406
(dp1407
g12
Nsg13
(dp1408
sg19
Nsg20
I00
sbsI18
g0
(g8
g2
Ntp1409
Rp1410
(dp1411
g12
Nsg13
(dp1412
sg19
Nsg20
I01
sbsI19
g0
(g8
g2
Ntp1413
Rp1414
(dp1415
g12
Nsg13
(dp1416
sg19
Nsg20
I01
sbsI20
g0
(g8
g2
Ntp1417
Rp1418
(dp1419
g12
Nsg13
(dp1420
sg19
Nsg20
I01
sbsI21
g0
(g8
g2
Ntp1421
Rp1422
(dp1423
g12
Nsg13
(dp1424
sg19
Nsg20
I00
sbsI22
g0
(g8
g2
Ntp1425
Rp1426
(dp1427
g12
Nsg13
(dp1428
sg19
Nsg20
I01
sbsI23
g0
(g8
g2
Ntp1429
Rp1430
(dp1431
g12
Nsg13
(dp1432
sg19
Nsg20
I00
sbsI24
g0
(g8
g2
Ntp1433
Rp1434
(dp1435
g12
Nsg13
(dp1436
sg19
Nsg20
I01
sbsI25
g0
(g8
g2
Ntp1437
Rp1438
(dp1439
g12
Nsg13
(dp1440
sg19
Nsg20
I01
sbsI26
g0
(g8
g2
Ntp1441
Rp1442
(dp1443
g12
Nsg13
(dp1444
sg19
Nsg20
I01
sbsI27
g0
(g8
g2
Ntp1445
Rp1446
(dp1447
g12
Nsg13
(dp1448
sg19
Nsg20
I01
sbsI28
g0
(g8
g2
Ntp1449
Rp1450
(dp1451
g12
Nsg13
(dp1452
sg19
Nsg20
I00
sbsI29
g0
(g8
g2
Ntp1453
Rp1454
(dp1455
g12
Nsg13
(dp1456
sg19
Nsg20
I01
sbsI30
g0
(g8
g2
Ntp1457
Rp1458
(dp1459
g12
Nsg13
(dp1460
sg19
Nsg20
I01
sbsI31
g0
(g8
g2
Ntp1461
Rp1462
(dp1463
g12
Nsg13
(dp1464
sg19
Nsg20
I01
sbsI32
g0
(g8
g2
Ntp1465
Rp1466
(dp1467
g12
Nsg13
(dp1468
sg19
Nsg20
I00
sbsI33
g0
(g8
g2
Ntp1469
Rp1470
(dp1471
g12
Nsg13
(dp1472
sg19
Nsg20
I01
sbsI34
g0
(g8
g2
Ntp1473
Rp1474
(dp1475
g12
Nsg13
(dp1476
sg19
Nsg20
I01
sbsI35
g0
(g8
g2
Ntp1477
Rp1478
(dp1479
g12
Nsg13
(dp1480
sg19
Nsg20
I01
sbsI36
g0
(g8
g2
Ntp1481
Rp1482
(dp1483
g12
Nsg13
(dp1484
sg19
Nsg20
I00
sbsI37
g0
(g8
g2
Ntp1485
Rp1486
(dp1487
g12
Nsg13
(dp1488
sg19
Nsg20
I00
sbsI38
g0
(g8
g2
Ntp1489
Rp1490
(dp1491
g12
Nsg13
(dp1492
sg19
Nsg20
I00
sbsI39
g0
(g8
g2
Ntp1493
Rp1494
(dp1495
g12
Nsg13
(dp1496
sg19
Nsg20
I00
sbsI40
g0
(g8
g2
Ntp1497
Rp1498
(dp1499
g12
Nsg13
(dp1500
sg19
Nsg20
I00
sbsI41
g0
(g8
g2
Ntp1501
Rp1502
(dp1503
g12
Nsg13
(dp1504
sg19
Nsg20
I00
sbsI42
g0
(g8
g2
Ntp1505
Rp1506
(dp1507
g12
Nsg13
(dp1508
sg19
Nsg20
I01
sbsI43
g0
(g8
g2
Ntp1509
Rp1510
(dp1511
g12
Nsg13
(dp1512
sg19
Nsg20
I00
sbsI44
g0
(g8
g2
Ntp1513
Rp1514
(dp1515
g12
Nsg13
(dp1516
sg19
Nsg20
I00
sbsI45
g0
(g8
g2
Ntp1517
Rp1518
(dp1519
g12
Nsg13
(dp1520
sg19
Nsg20
I01
sbsI46
g0
(g8
g2
Ntp1521
Rp1522
(dp1523
g12
Nsg13
(dp1524
sg19
Nsg20
I00
sbsI47
g0
(g8
g2
Ntp1525
Rp1526
(dp1527
g12
Nsg13
(dp1528
sg19
Nsg20
I01
sbsI48
g0
(g8
g2
Ntp1529
Rp1530
(dp1531
g12
Nsg13
(dp1532
sg19
Nsg20
I01
sbsI49
g0
(g8
g2
Ntp1533
Rp1534
(dp1535
g12
Nsg13
(dp1536
sg19
Nsg20
I00
sbsI50
g0
(g8
g2
Ntp1537
Rp1538
(dp1539
g12
Nsg13
(dp1540
sg19
Nsg20
I00
sbsI51
g0
(g8
g2
Ntp1541
Rp1542
(dp1543
g12
Nsg13
(dp1544
sg19
Nsg20
I01
sbsI52
g0
(g8
g2
Ntp1545
Rp1546
(dp1547
g12
Nsg13
(dp1548
sg19
Nsg20
I00
sbsI53
g0
(g8
g2
Ntp1549
Rp1550
(dp1551
g12
Nsg13
(dp1552
sg19
Nsg20
I00
sbsI54
g0
(g8
g2
Ntp1553
Rp1554
(dp1555
g12
Nsg13
(dp1556
sg19
Nsg20
I01
sbsI55
g0
(g8
g2
Ntp1557
Rp1558
(dp1559
g12
Nsg13
(dp1560
sg19
Nsg20
I01
sbsI56
g0
(g8
g2
Ntp1561
Rp1562
(dp1563
g12
Nsg13
(dp1564
sg19
Nsg20
I01
sbsI57
g0
(g8
g2
Ntp1565
Rp1566
(dp1567
g12
Nsg13
(dp1568
sg19
Nsg20
I01
sbsI58
g0
(g8
g2
Ntp1569
Rp1570
(dp1571
g12
Nsg13
(dp1572
sg19
Nsg20
I00
sbsI59
g0
(g8
g2
Ntp1573
Rp1574
(dp1575
g12
Nsg13
(dp1576
sg19
Nsg20
I01
sbsI60
g0
(g8
g2
Ntp1577
Rp1578
(dp1579
g12
Nsg13
(dp1580
sg19
Nsg20
I01
sbsI61
g0
(g8
g2
Ntp1581
Rp1582
(dp1583
g12
Nsg13
(dp1584
sg19
Nsg20
I01
sbsI62
g0
(g8
g2
Ntp1585
Rp1586
(dp1587
g12
Nsg13
(dp1588
sg19
Nsg20
I01
sbsI63
g0
(g8
g2
Ntp1589
Rp1590
(dp1591
g12
Nsg13
(dp1592
sg19
Nsg20
I01
sbsI64
g0
(g8
g2
Ntp1593
Rp1594
(dp1595
g12
Nsg13
(dp1596
sg19
Nsg20
I01
sbsI65
g0
(g8
g2
Ntp1597
Rp1598
(dp1599
g12
Nsg13
(dp1600
sg19
Nsg20
I00
sbsI66
g0
(g8
g2
Ntp1601
Rp1602
(dp1603
g12
Nsg13
(dp1604
sg19
Nsg20
I00
sbsI67
g0
(g8
g2
Ntp1605
Rp1606
(dp1607
g12
Nsg13
(dp1608
sg19
Nsg20
I00
sbsI68
g0
(g8
g2
Ntp1609
Rp1610
(dp1611
g12
Nsg13
(dp1612
sg19
Nsg20
I01
sbsI69
g0
(g8
g2
Ntp1613
Rp1614
(dp1615
g12
Nsg13
(dp1616
sg19
Nsg20
I01
sbsI70
g0
(g8
g2
Ntp1617
Rp1618
(dp1619
g12
Nsg13
(dp1620
sg19
Nsg20
I00
sbsI71
g0
(g8
g2
Ntp1621
Rp1622
(dp1623
g12
Nsg13
(dp1624
sg19
Nsg20
I00
sbsI72
g0
(g8
g2
Ntp1625
Rp1626
(dp1627
g12
Nsg13
(dp1628
sg19
Nsg20
I01
sbsI73
g0
(g8
g2
Ntp1629
Rp1630
(dp1631
g12
Nsg13
(dp1632
sg19
Nsg20
I01
sbsI74
g0
(g8
g2
Ntp1633
Rp1634
(dp1635
g12
Nsg13
(dp1636
sg19
Nsg20
I01
sbsI75
g0
(g8
g2
Ntp1637
Rp1638
(dp1639
g12
Nsg13
(dp1640
sg19
Nsg20
I00
sbsI76
g0
(g8
g2
Ntp1641
Rp1642
(dp1643
g12
Nsg13
(dp1644
sg19
Nsg20
I00
sbsI77
g0
(g8
g2
Ntp1645
Rp1646
(dp1647
g12
Nsg13
(dp1648
sg19
Nsg20
I00
sbsI78
g0
(g8
g2
Ntp1649
Rp1650
(dp1651
g12
Nsg13
(dp1652
sg19
Nsg20
I00
sbsI79
g0
(g8
g2
Ntp1653
Rp1654
(dp1655
g12
Nsg13
(dp1656
sg19
Nsg20
I01
sbsI80
g0
(g8
g2
Ntp1657
Rp1658
(dp1659
g12
Nsg13
(dp1660
sg19
Nsg20
I00
sbsI81
g0
(g8
g2
Ntp1661
Rp1662
(dp1663
g12
Nsg13
(dp1664
sg19
Nsg20
I00
sbsI82
g0
(g8
g2
Ntp1665
Rp1666
(dp1667
g12
Nsg13
(dp1668
sg19
Nsg20
I01
sbsI83
g0
(g8
g2
Ntp1669
Rp1670
(dp1671
g12
Nsg13
(dp1672
sg19
Nsg20
I00
sbsI84
g0
(g8
g2
Ntp1673
Rp1674
(dp1675
g12
Nsg13
(dp1676
sg19
Nsg20
I00
sbsI85
g0
(g8
g2
Ntp1677
Rp1678
(dp1679
g12
Nsg13
(dp1680
sg19
Nsg20
I00
sbsI86
g0
(g8
g2
Ntp1681
Rp1682
(dp1683
g12
Nsg13
(dp1684
sg19
Nsg20
I00
sbsI87
g0
(g8
g2
Ntp1685
Rp1686
(dp1687
g12
Nsg13
(dp1688
sg19
Nsg20
I00
sbsI88
g0
(g8
g2
Ntp1689
Rp1690
(dp1691
g12
Nsg13
(dp1692
sg19
Nsg20
I00
sbsI89
g0
(g8
g2
Ntp1693
Rp1694
(dp1695
g12
Nsg13
(dp1696
sg19
Nsg20
I00
sbsI90
g0
(g8
g2
Ntp1697
Rp1698
(dp1699
g12
Nsg13
(dp1700
sg19
Nsg20
I01
sbsI91
g0
(g8
g2
Ntp1701
Rp1702
(dp1703
g12
Nsg13
(dp1704
sg19
Nsg20
I00
sbsI92
g0
(g8
g2
Ntp1705
Rp1706
(dp1707
g12
Nsg13
(dp1708
sg19
Nsg20
I00
sbsI93
g0
(g8
g2
Ntp1709
Rp1710
(dp1711
g12
Nsg13
(dp1712
sg19
Nsg20
I00
sbsI94
g0
(g8
g2
Ntp1713
Rp1714
(dp1715
g12
Nsg13
(dp1716
sg19
Nsg20
I01
sbsI95
g0
(g8
g2
Ntp1717
Rp1718
(dp1719
g12
Nsg13
(dp1720
sg19
Nsg20
I00
sbsI96
g0
(g8
g2
Ntp1721
Rp1722
(dp1723
g12
Nsg13
(dp1724
sg19
Nsg20
I01
sbsI97
g0
(g8
g2
Ntp1725
Rp1726
(dp1727
g12
Nsg13
(dp1728
sg19
Nsg20
I01
sbsI98
g0
(g8
g2
Ntp1729
Rp1730
(dp1731
g12
Nsg13
(dp1732
sg19
Nsg20
I00
sbsI99
g0
(g8
g2
Ntp1733
Rp1734
(dp1735
g12
Nsg13
(dp1736
sg19
Nsg20
I00
sbsI100
g0
(g8
g2
Ntp1737
Rp1738
(dp1739
g12
Nsg13
(dp1740
sg19
Nsg20
I00
sbsI101
g0
(g8
g2
Ntp1741
Rp1742
(dp1743
g12
Nsg13
(dp1744
sg19
Nsg20
I01
sbsI102
g0
(g8
g2
Ntp1745
Rp1746
(dp1747
g12
Nsg13
(dp1748
sg19
Nsg20
I00
sbsI103
g0
(g8
g2
Ntp1749
Rp1750
(dp1751
g12
Nsg13
(dp1752
sg19
Nsg20
I00
sbsI104
g0
(g8
g2
Ntp1753
Rp1754
(dp1755
g12
Nsg13
(dp1756
sg19
Nsg20
I00
sbsI105
g0
(g8
g2
Ntp1757
Rp1758
(dp1759
g12
Nsg13
(dp1760
sg19
Nsg20
I00
sbsI106
g0
(g8
g2
Ntp1761
Rp1762
(dp1763
g12
Nsg13
(dp1764
sg19
Nsg20
I00
sbsI107
g0
(g8
g2
Ntp1765
Rp1766
(dp1767
g12
Nsg13
(dp1768
sg19
Nsg20
I00
sbsI108
g0
(g8
g2
Ntp1769
Rp1770
(dp1771
g12
Nsg13
(dp1772
sg19
Nsg20
I01
sbsI109
g0
(g8
g2
Ntp1773
Rp1774
(dp1775
g12
Nsg13
(dp1776
sg19
Nsg20
I00
sbsI110
g0
(g8
g2
Ntp1777
Rp1778
(dp1779
g12
Nsg13
(dp1780
sg19
Nsg20
I00
sbsI111
g0
(g8
g2
Ntp1781
Rp1782
(dp1783
g12
Nsg13
(dp1784
sg19
Nsg20
I00
sbsI112
g0
(g8
g2
Ntp1785
Rp1786
(dp1787
g12
Nsg13
(dp1788
sg19
Nsg20
I00
sbsI113
g0
(g8
g2
Ntp1789
Rp1790
(dp1791
g12
Nsg13
(dp1792
sg19
Nsg20
I00
sbsI114
g0
(g8
g2
Ntp1793
Rp1794
(dp1795
g12
Nsg13
(dp1796
sg19
Nsg20
I00
sbsI115
g0
(g8
g2
Ntp1797
Rp1798
(dp1799
g12
Nsg13
(dp1800
sg19
Nsg20
I00
sbsI116
g0
(g8
g2
Ntp1801
Rp1802
(dp1803
g12
Nsg13
(dp1804
sg19
Nsg20
I00
sbsI117
g0
(g8
g2
Ntp1805
Rp1806
(dp1807
g12
Nsg13
(dp1808
sg19
Nsg20
I00
sbsI118
g0
(g8
g2
Ntp1809
Rp1810
(dp1811
g12
Nsg13
(dp1812
sg19
Nsg20
I00
sbsI119
g0
(g8
g2
Ntp1813
Rp1814
(dp1815
g12
Nsg13
(dp1816
sg19
Nsg20
I00
sbsI120
g0
(g8
g2
Ntp1817
Rp1818
(dp1819
g12
Nsg13
(dp1820
sg19
Nsg20
I01
sbsI121
g0
(g8
g2
Ntp1821
Rp1822
(dp1823
g12
Nsg13
(dp1824
sg19
Nsg20
I00
sbsI122
g0
(g8
g2
Ntp1825
Rp1826
(dp1827
g12
Nsg13
(dp1828
sg19
Nsg20
I00
sbsI123
g0
(g8
g2
Ntp1829
Rp1830
(dp1831
g12
Nsg13
(dp1832
sg19
Nsg20
I00
sbsI124
g0
(g8
g2
Ntp1833
Rp1834
(dp1835
g12
Nsg13
(dp1836
sg19
Nsg20
I00
sbsI125
g0
(g8
g2
Ntp1837
Rp1838
(dp1839
g12
Nsg13
(dp1840
sg19
Nsg20
I00
sbsI126
g0
(g8
g2
Ntp1841
Rp1842
(dp1843
g12
Nsg13
(dp1844
sg19
Nsg20
I00
sbsI127
g0
(g8
g2
Ntp1845
Rp1846
(dp1847
g12
Nsg13
(dp1848
sg19
Nsg20
I00
sbsI128
g0
(g8
g2
Ntp1849
Rp1850
(dp1851
g12
Nsg13
(dp1852
sg19
Nsg20
I00
sbsI129
g0
(g8
g2
Ntp1853
Rp1854
(dp1855
g12
Nsg13
(dp1856
sg19
Nsg20
I01
sbsI130
g0
(g8
g2
Ntp1857
Rp1858
(dp1859
g12
Nsg13
(dp1860
sg19
Nsg20
I01
sbsI131
g0
(g8
g2
Ntp1861
Rp1862
(dp1863
g12
Nsg13
(dp1864
sg19
Nsg20
I01
sbsI132
g0
(g8
g2
Ntp1865
Rp1866
(dp1867
g12
Nsg13
(dp1868
sg19
Nsg20
I00
sbsI133
g0
(g8
g2
Ntp1869
Rp1870
(dp1871
g12
Nsg13
(dp1872
sg19
Nsg20
I00
sbsI134
g0
(g8
g2
Ntp1873
Rp1874
(dp1875
g12
Nsg13
(dp1876
sg19
Nsg20
I00
sbsI135
g0
(g8
g2
Ntp1877
Rp1878
(dp1879
g12
Nsg13
(dp1880
sg19
Nsg20
I00
sbsI136
g0
(g8
g2
Ntp1881
Rp1882
(dp1883
g12
Nsg13
(dp1884
sg19
Nsg20
I00
sbsI137
g0
(g8
g2
Ntp1885
Rp1886
(dp1887
g12
Nsg13
(dp1888
sg19
Nsg20
I00
sbsI138
g0
(g8
g2
Ntp1889
Rp1890
(dp1891
g12
Nsg13
(dp1892
sg19
Nsg20
I00
sbsI139
g0
(g8
g2
Ntp1893
Rp1894
(dp1895
g12
Nsg13
(dp1896
sg19
Nsg20
I00
sbsI140
g0
(g8
g2
Ntp1897
Rp1898
(dp1899
g12
Nsg13
(dp1900
sg19
Nsg20
I00
sbsI141
g0
(g8
g2
Ntp1901
Rp1902
(dp1903
g12
Nsg13
(dp1904
sg19
Nsg20
I01
sbsI142
g0
(g8
g2
Ntp1905
Rp1906
(dp1907
g12
Nsg13
(dp1908
sg19
Nsg20
I01
sbsI144
g0
(g8
g2
Ntp1909
Rp1910
(dp1911
g12
Nsg13
(dp1912
sg19
Nsg20
I00
sbsI145
g0
(g8
g2
Ntp1913
Rp1914
(dp1915
g12
Nsg13
(dp1916
sg19
Nsg20
I01
sbsI146
g0
(g8
g2
Ntp1917
Rp1918
(dp1919
g12
Nsg13
(dp1920
sg19
Nsg20
I00
sbsI147
g0
(g8
g2
Ntp1921
Rp1922
(dp1923
g12
Nsg13
(dp1924
sg19
Nsg20
I00
sbsI148
g0
(g8
g2
Ntp1925
Rp1926
(dp1927
g12
Nsg13
(dp1928
sg19
Nsg20
I00
sbsI149
g0
(g8
g2
Ntp1929
Rp1930
(dp1931
g12
Nsg13
(dp1932
sg19
Nsg20
I00
sbsI150
g0
(g8
g2
Ntp1933
Rp1934
(dp1935
g12
Nsg13
(dp1936
sg19
Nsg20
I00
sbsI151
g0
(g8
g2
Ntp1937
Rp1938
(dp1939
g12
Nsg13
(dp1940
sg19
Nsg20
I00
sbsI152
g0
(g8
g2
Ntp1941
Rp1942
(dp1943
g12
Nsg13
(dp1944
sg19
Nsg20
I00
sbsI153
g0
(g8
g2
Ntp1945
Rp1946
(dp1947
g12
Nsg13
(dp1948
sg19
Nsg20
I00
sbsI154
g0
(g8
g2
Ntp1949
Rp1950
(dp1951
g12
Nsg13
(dp1952
sg19
Nsg20
I01
sbsI157
g0
(g8
g2
Ntp1953
Rp1954
(dp1955
g12
Nsg13
(dp1956
sg19
Nsg20
I00
sbsI160
g0
(g8
g2
Ntp1957
Rp1958
(dp1959
g12
Nsg13
(dp1960
sg19
Nsg20
I00
sbsI161
g0
(g8
g2
Ntp1961
Rp1962
(dp1963
g12
Nsg13
(dp1964
sg19
Nsg20
I00
sbsI162
g0
(g8
g2
Ntp1965
Rp1966
(dp1967
g12
Nsg13
(dp1968
sg19
Nsg20
I00
sbsI168
g0
(g8
g2
Ntp1969
Rp1970
(dp1971
g12
Nsg13
(dp1972
sg19
Nsg20
I00
sbsI169
g0
(g8
g2
Ntp1973
Rp1974
(dp1975
g12
Nsg13
(dp1976
sg19
Nsg20
I01
sbsI170
g0
(g8
g2
Ntp1977
Rp1978
(dp1979
g12
Nsg13
(dp1980
sg19
Nsg20
I01
sbsI172
g0
(g8
g2
Ntp1981
Rp1982
(dp1983
g12
Nsg13
(dp1984
sg19
Nsg20
I00
sbsI184
g0
(g8
g2
Ntp1985
Rp1986
(dp1987
g12
Nsg13
(dp1988
sg19
Nsg20
I00
sbsI189
g0
(g8
g2
Ntp1989
Rp1990
(dp1991
g12
Nsg13
(dp1992
sg19
Nsg20
I00
sbssg19
I36
sg20
Nsbag0
(g8
g2
Ntp1993
Rp1994
(dp1995
g12
I00
sg13
(dp1996
I0
g0
(g8
g2
Ntp1997
Rp1998
(dp1999
g12
Nsg13
(dp2000
sg19
Nsg20
I00
sbsI1
g0
(g8
g2
Ntp2001
Rp2002
(dp2003
g12
Nsg13
(dp2004
sg19
Nsg20
I00
sbsI2
g0
(g8
g2
Ntp2005
Rp2006
(dp2007
g12
Nsg13
(dp2008
sg19
Nsg20
I01
sbsI3
g0
(g8
g2
Ntp2009
Rp2010
(dp2011
g12
Nsg13
(dp2012
sg19
Nsg20
I01
sbsI4
g0
(g8
g2
Ntp2013
Rp2014
(dp2015
g12
Nsg13
(dp2016
sg19
Nsg20
I01
sbsI5
g0
(g8
g2
Ntp2017
Rp2018
(dp2019
g12
Nsg13
(dp2020
sg19
Nsg20
I01
sbsI6
g0
(g8
g2
Ntp2021
Rp2022
(dp2023
g12
Nsg13
(dp2024
sg19
Nsg20
I01
sbsI7
g0
(g8
g2
Ntp2025
Rp2026
(dp2027
g12
Nsg13
(dp2028
sg19
Nsg20
I01
sbsI8
g0
(g8
g2
Ntp2029
Rp2030
(dp2031
g12
Nsg13
(dp2032
sg19
Nsg20
I01
sbsI9
g0
(g8
g2
Ntp2033
Rp2034
(dp2035
g12
Nsg13
(dp2036
sg19
Nsg20
I01
sbsI10
g0
(g8
g2
Ntp2037
Rp2038
(dp2039
g12
Nsg13
(dp2040
sg19
Nsg20
I01
sbsI11
g0
(g8
g2
Ntp2041
Rp2042
(dp2043
g12
Nsg13
(dp2044
sg19
Nsg20
I01
sbsI12
g0
(g8
g2
Ntp2045
Rp2046
(dp2047
g12
Nsg13
(dp2048
sg19
Nsg20
I01
sbsI13
g0
(g8
g2
Ntp2049
Rp2050
(dp2051
g12
Nsg13
(dp2052
sg19
Nsg20
I01
sbsI14
g0
(g8
g2
Ntp2053
Rp2054
(dp2055
g12
Nsg13
(dp2056
sg19
Nsg20
I01
sbssg19
I43
sg20
Nsbag0
(g8
g2
Ntp2057
Rp2058
(dp2059
g12
I01
sg13
(dp2060
I0
g0
(g8
g2
Ntp2061
Rp2062
(dp2063
g12
Nsg13
(dp2064
sg19
Nsg20
I01
sbsI1
g0
(g8
g2
Ntp2065
Rp2066
(dp2067
g12
Nsg13
(dp2068
sg19
Nsg20
I01
sbsI2
g0
(g8
g2
Ntp2069
Rp2070
(dp2071
g12
Nsg13
(dp2072
sg19
Nsg20
I01
sbsI3
g0
(g8
g2
Ntp2073
Rp2074
(dp2075
g12
Nsg13
(dp2076
sg19
Nsg20
I00
sbsI4
g0
(g8
g2
Ntp2077
Rp2078
(dp2079
g12
Nsg13
(dp2080
sg19
Nsg20
I01
sbsI5
g0
(g8
g2
Ntp2081
Rp2082
(dp2083
g12
Nsg13
(dp2084
sg19
Nsg20
I00
sbsI6
g0
(g8
g2
Ntp2085
Rp2086
(dp2087
g12
Nsg13
(dp2088
sg19
Nsg20
I01
sbsI7
g0
(g8
g2
Ntp2089
Rp2090
(dp2091
g12
Nsg13
(dp2092
sg19
Nsg20
I00
sbsI8
g0
(g8
g2
Ntp2093
Rp2094
(dp2095
g12
Nsg13
(dp2096
sg19
Nsg20
I01
sbsI9
g0
(g8
g2
Ntp2097
Rp2098
(dp2099
g12
Nsg13
(dp2100
sg19
Nsg20
I00
sbsI10
g0
(g8
g2
Ntp2101
Rp2102
(dp2103
g12
Nsg13
(dp2104
sg19
Nsg20
I01
sbsI11
g0
(g8
g2
Ntp2105
Rp2106
(dp2107
g12
Nsg13
(dp2108
sg19
Nsg20
I00
sbsI12
g0
(g8
g2
Ntp2109
Rp2110
(dp2111
g12
Nsg13
(dp2112
sg19
Nsg20
I01
sbsI13
g0
(g8
g2
Ntp2113
Rp2114
(dp2115
g12
Nsg13
(dp2116
sg19
Nsg20
I01
sbsI14
g0
(g8
g2
Ntp2117
Rp2118
(dp2119
g12
Nsg13
(dp2120
sg19
Nsg20
I01
sbsI15
g0
(g8
g2
Ntp2121
Rp2122
(dp2123
g12
Nsg13
(dp2124
sg19
Nsg20
I01
sbsI16
g0
(g8
g2
Ntp2125
Rp2126
(dp2127
g12
Nsg13
(dp2128
sg19
Nsg20
I01
sbsI17
g0
(g8
g2
Ntp2129
Rp2130
(dp2131
g12
Nsg13
(dp2132
sg19
Nsg20
I00
sbsI18
g0
(g8
g2
Ntp2133
Rp2134
(dp2135
g12
Nsg13
(dp2136
sg19
Nsg20
I00
sbsI19
g0
(g8
g2
Ntp2137
Rp2138
(dp2139
g12
Nsg13
(dp2140
sg19
Nsg20
I00
sbsI20
g0
(g8
g2
Ntp2141
Rp2142
(dp2143
g12
Nsg13
(dp2144
sg19
Nsg20
I01
sbsI21
g0
(g8
g2
Ntp2145
Rp2146
(dp2147
g12
Nsg13
(dp2148
sg19
Nsg20
I01
sbsI22
g0
(g8
g2
Ntp2149
Rp2150
(dp2151
g12
Nsg13
(dp2152
sg19
Nsg20
I00
sbsI23
g0
(g8
g2
Ntp2153
Rp2154
(dp2155
g12
Nsg13
(dp2156
sg19
Nsg20
I01
sbsI24
g0
(g8
g2
Ntp2157
Rp2158
(dp2159
g12
Nsg13
(dp2160
sg19
Nsg20
I01
sbsI25
g0
(g8
g2
Ntp2161
Rp2162
(dp2163
g12
Nsg13
(dp2164
sg19
Nsg20
I01
sbsI26
g0
(g8
g2
Ntp2165
Rp2166
(dp2167
g12
Nsg13
(dp2168
sg19
Nsg20
I01
sbsI27
g0
(g8
g2
Ntp2169
Rp2170
(dp2171
g12
Nsg13
(dp2172
sg19
Nsg20
I01
sbsI28
g0
(g8
g2
Ntp2173
Rp2174
(dp2175
g12
Nsg13
(dp2176
sg19
Nsg20
I01
sbsI29
g0
(g8
g2
Ntp2177
Rp2178
(dp2179
g12
Nsg13
(dp2180
sg19
Nsg20
I01
sbsI30
g0
(g8
g2
Ntp2181
Rp2182
(dp2183
g12
Nsg13
(dp2184
sg19
Nsg20
I01
sbsI31
g0
(g8
g2
Ntp2185
Rp2186
(dp2187
g12
Nsg13
(dp2188
sg19
Nsg20
I01
sbsI32
g0
(g8
g2
Ntp2189
Rp2190
(dp2191
g12
Nsg13
(dp2192
sg19
Nsg20
I01
sbsI33
g0
(g8
g2
Ntp2193
Rp2194
(dp2195
g12
Nsg13
(dp2196
sg19
Nsg20
I01
sbsI34
g0
(g8
g2
Ntp2197
Rp2198
(dp2199
g12
Nsg13
(dp2200
sg19
Nsg20
I01
sbsI35
g0
(g8
g2
Ntp2201
Rp2202
(dp2203
g12
Nsg13
(dp2204
sg19
Nsg20
I00
sbsI36
g0
(g8
g2
Ntp2205
Rp2206
(dp2207
g12
Nsg13
(dp2208
sg19
Nsg20
I01
sbsI37
g0
(g8
g2
Ntp2209
Rp2210
(dp2211
g12
Nsg13
(dp2212
sg19
Nsg20
I01
sbsI38
g0
(g8
g2
Ntp2213
Rp2214
(dp2215
g12
Nsg13
(dp2216
sg19
Nsg20
I01
sbsI39
g0
(g8
g2
Ntp2217
Rp2218
(dp2219
g12
Nsg13
(dp2220
sg19
Nsg20
I01
sbsI40
g0
(g8
g2
Ntp2221
Rp2222
(dp2223
g12
Nsg13
(dp2224
sg19
Nsg20
I01
sbsI41
g0
(g8
g2
Ntp2225
Rp2226
(dp2227
g12
Nsg13
(dp2228
sg19
Nsg20
I01
sbsI42
g0
(g8
g2
Ntp2229
Rp2230
(dp2231
g12
Nsg13
(dp2232
sg19
Nsg20
I00
sbsI43
g0
(g8
g2
Ntp2233
Rp2234
(dp2235
g12
Nsg13
(dp2236
sg19
Nsg20
I01
sbsI44
g0
(g8
g2
Ntp2237
Rp2238
(dp2239
g12
Nsg13
(dp2240
sg19
Nsg20
I01
sbsI45
g0
(g8
g2
Ntp2241
Rp2242
(dp2243
g12
Nsg13
(dp2244
sg19
Nsg20
I01
sbsI46
g0
(g8
g2
Ntp2245
Rp2246
(dp2247
g12
Nsg13
(dp2248
sg19
Nsg20
I01
sbsI47
g0
(g8
g2
Ntp2249
Rp2250
(dp2251
g12
Nsg13
(dp2252
sg19
Nsg20
I01
sbsI48
g0
(g8
g2
Ntp2253
Rp2254
(dp2255
g12
Nsg13
(dp2256
sg19
Nsg20
I01
sbsI49
g0
(g8
g2
Ntp2257
Rp2258
(dp2259
g12
Nsg13
(dp2260
sg19
Nsg20
I01
sbsI50
g0
(g8
g2
Ntp2261
Rp2262
(dp2263
g12
Nsg13
(dp2264
sg19
Nsg20
I00
sbsI51
g0
(g8
g2
Ntp2265
Rp2266
(dp2267
g12
Nsg13
(dp2268
sg19
Nsg20
I01
sbsI52
g0
(g8
g2
Ntp2269
Rp2270
(dp2271
g12
Nsg13
(dp2272
sg19
Nsg20
I01
sbsI53
g0
(g8
g2
Ntp2273
Rp2274
(dp2275
g12
Nsg13
(dp2276
sg19
Nsg20
I01
sbsI54
g0
(g8
g2
Ntp2277
Rp2278
(dp2279
g12
Nsg13
(dp2280
sg19
Nsg20
I01
sbsI55
g0
(g8
g2
Ntp2281
Rp2282
(dp2283
g12
Nsg13
(dp2284
sg19
Nsg20
I01
sbsI56
g0
(g8
g2
Ntp2285
Rp2286
(dp2287
g12
Nsg13
(dp2288
sg19
Nsg20
I01
sbsI57
g0
(g8
g2
Ntp2289
Rp2290
(dp2291
g12
Nsg13
(dp2292
sg19
Nsg20
I01
sbsI58
g0
(g8
g2
Ntp2293
Rp2294
(dp2295
g12
Nsg13
(dp2296
sg19
Nsg20
I01
sbsI59
g0
(g8
g2
Ntp2297
Rp2298
(dp2299
g12
Nsg13
(dp2300
sg19
Nsg20
I01
sbsI60
g0
(g8
g2
Ntp2301
Rp2302
(dp2303
g12
Nsg13
(dp2304
sg19
Nsg20
I01
sbsI61
g0
(g8
g2
Ntp2305
Rp2306
(dp2307
g12
Nsg13
(dp2308
sg19
Nsg20
I01
sbsI62
g0
(g8
g2
Ntp2309
Rp2310
(dp2311
g12
Nsg13
(dp2312
sg19
Nsg20
I01
sbsI63
g0
(g8
g2
Ntp2313
Rp2314
(dp2315
g12
Nsg13
(dp2316
sg19
Nsg20
I01
sbsI64
g0
(g8
g2
Ntp2317
Rp2318
(dp2319
g12
Nsg13
(dp2320
sg19
Nsg20
I01
sbsI65
g0
(g8
g2
Ntp2321
Rp2322
(dp2323
g12
Nsg13
(dp2324
sg19
Nsg20
I01
sbsI66
g0
(g8
g2
Ntp2325
Rp2326
(dp2327
g12
Nsg13
(dp2328
sg19
Nsg20
I01
sbsI67
g0
(g8
g2
Ntp2329
Rp2330
(dp2331
g12
Nsg13
(dp2332
sg19
Nsg20
I01
sbsI68
g0
(g8
g2
Ntp2333
Rp2334
(dp2335
g12
Nsg13
(dp2336
sg19
Nsg20
I01
sbsI69
g0
(g8
g2
Ntp2337
Rp2338
(dp2339
g12
Nsg13
(dp2340
sg19
Nsg20
I01
sbsI70
g0
(g8
g2
Ntp2341
Rp2342
(dp2343
g12
Nsg13
(dp2344
sg19
Nsg20
I01
sbsI71
g0
(g8
g2
Ntp2345
Rp2346
(dp2347
g12
Nsg13
(dp2348
sg19
Nsg20
I01
sbsI72
g0
(g8
g2
Ntp2349
Rp2350
(dp2351
g12
Nsg13
(dp2352
sg19
Nsg20
I01
sbsI73
g0
(g8
g2
Ntp2353
Rp2354
(dp2355
g12
Nsg13
(dp2356
sg19
Nsg20
I01
sbsI74
g0
(g8
g2
Ntp2357
Rp2358
(dp2359
g12
Nsg13
(dp2360
sg19
Nsg20
I00
sbsI75
g0
(g8
g2
Ntp2361
Rp2362
(dp2363
g12
Nsg13
(dp2364
sg19
Nsg20
I01
sbsI76
g0
(g8
g2
Ntp2365
Rp2366
(dp2367
g12
Nsg13
(dp2368
sg19
Nsg20
I01
sbsI77
g0
(g8
g2
Ntp2369
Rp2370
(dp2371
g12
Nsg13
(dp2372
sg19
Nsg20
I01
sbsI78
g0
(g8
g2
Ntp2373
Rp2374
(dp2375
g12
Nsg13
(dp2376
sg19
Nsg20
I01
sbsI79
g0
(g8
g2
Ntp2377
Rp2378
(dp2379
g12
Nsg13
(dp2380
sg19
Nsg20
I00
sbsI80
g0
(g8
g2
Ntp2381
Rp2382
(dp2383
g12
Nsg13
(dp2384
sg19
Nsg20
I00
sbsI81
g0
(g8
g2
Ntp2385
Rp2386
(dp2387
g12
Nsg13
(dp2388
sg19
Nsg20
I00
sbsI82
g0
(g8
g2
Ntp2389
Rp2390
(dp2391
g12
Nsg13
(dp2392
sg19
Nsg20
I01
sbsI83
g0
(g8
g2
Ntp2393
Rp2394
(dp2395
g12
Nsg13
(dp2396
sg19
Nsg20
I01
sbsI84
g0
(g8
g2
Ntp2397
Rp2398
(dp2399
g12
Nsg13
(dp2400
sg19
Nsg20
I01
sbsI85
g0
(g8
g2
Ntp2401
Rp2402
(dp2403
g12
Nsg13
(dp2404
sg19
Nsg20
I00
sbsI86
g0
(g8
g2
Ntp2405
Rp2406
(dp2407
g12
Nsg13
(dp2408
sg19
Nsg20
I01
sbsI87
g0
(g8
g2
Ntp2409
Rp2410
(dp2411
g12
Nsg13
(dp2412
sg19
Nsg20
I00
sbsI88
g0
(g8
g2
Ntp2413
Rp2414
(dp2415
g12
Nsg13
(dp2416
sg19
Nsg20
I01
sbsI89
g0
(g8
g2
Ntp2417
Rp2418
(dp2419
g12
Nsg13
(dp2420
sg19
Nsg20
I01
sbsI90
g0
(g8
g2
Ntp2421
Rp2422
(dp2423
g12
Nsg13
(dp2424
sg19
Nsg20
I01
sbsI91
g0
(g8
g2
Ntp2425
Rp2426
(dp2427
g12
Nsg13
(dp2428
sg19
Nsg20
I00
sbsI92
g0
(g8
g2
Ntp2429
Rp2430
(dp2431
g12
Nsg13
(dp2432
sg19
Nsg20
I00
sbsI93
g0
(g8
g2
Ntp2433
Rp2434
(dp2435
g12
Nsg13
(dp2436
sg19
Nsg20
I01
sbsI94
g0
(g8
g2
Ntp2437
Rp2438
(dp2439
g12
Nsg13
(dp2440
sg19
Nsg20
I01
sbsI95
g0
(g8
g2
Ntp2441
Rp2442
(dp2443
g12
Nsg13
(dp2444
sg19
Nsg20
I01
sbsI96
g0
(g8
g2
Ntp2445
Rp2446
(dp2447
g12
Nsg13
(dp2448
sg19
Nsg20
I01
sbsI97
g0
(g8
g2
Ntp2449
Rp2450
(dp2451
g12
Nsg13
(dp2452
sg19
Nsg20
I01
sbsI98
g0
(g8
g2
Ntp2453
Rp2454
(dp2455
g12
Nsg13
(dp2456
sg19
Nsg20
I01
sbsI99
g0
(g8
g2
Ntp2457
Rp2458
(dp2459
g12
Nsg13
(dp2460
sg19
Nsg20
I00
sbsI100
g0
(g8
g2
Ntp2461
Rp2462
(dp2463
g12
Nsg13
(dp2464
sg19
Nsg20
I00
sbsI101
g0
(g8
g2
Ntp2465
Rp2466
(dp2467
g12
Nsg13
(dp2468
sg19
Nsg20
I01
sbsI102
g0
(g8
g2
Ntp2469
Rp2470
(dp2471
g12
Nsg13
(dp2472
sg19
Nsg20
I00
sbsI103
g0
(g8
g2
Ntp2473
Rp2474
(dp2475
g12
Nsg13
(dp2476
sg19
Nsg20
I00
sbsI104
g0
(g8
g2
Ntp2477
Rp2478
(dp2479
g12
Nsg13
(dp2480
sg19
Nsg20
I01
sbsI105
g0
(g8
g2
Ntp2481
Rp2482
(dp2483
g12
Nsg13
(dp2484
sg19
Nsg20
I00
sbsI106
g0
(g8
g2
Ntp2485
Rp2486
(dp2487
g12
Nsg13
(dp2488
sg19
Nsg20
I00
sbsI107
g0
(g8
g2
Ntp2489
Rp2490
(dp2491
g12
Nsg13
(dp2492
sg19
Nsg20
I00
sbsI108
g0
(g8
g2
Ntp2493
Rp2494
(dp2495
g12
Nsg13
(dp2496
sg19
Nsg20
I01
sbsI109
g0
(g8
g2
Ntp2497
Rp2498
(dp2499
g12
Nsg13
(dp2500
sg19
Nsg20
I01
sbsI110
g0
(g8
g2
Ntp2501
Rp2502
(dp2503
g12
Nsg13
(dp2504
sg19
Nsg20
I01
sbsI111
g0
(g8
g2
Ntp2505
Rp2506
(dp2507
g12
Nsg13
(dp2508
sg19
Nsg20
I01
sbsI112
g0
(g8
g2
Ntp2509
Rp2510
(dp2511
g12
Nsg13
(dp2512
sg19
Nsg20
I01
sbsI113
g0
(g8
g2
Ntp2513
Rp2514
(dp2515
g12
Nsg13
(dp2516
sg19
Nsg20
I00
sbsI114
g0
(g8
g2
Ntp2517
Rp2518
(dp2519
g12
Nsg13
(dp2520
sg19
Nsg20
I01
sbsI115
g0
(g8
g2
Ntp2521
Rp2522
(dp2523
g12
Nsg13
(dp2524
sg19
Nsg20
I00
sbsI116
g0
(g8
g2
Ntp2525
Rp2526
(dp2527
g12
Nsg13
(dp2528
sg19
Nsg20
I00
sbsI117
g0
(g8
g2
Ntp2529
Rp2530
(dp2531
g12
Nsg13
(dp2532
sg19
Nsg20
I01
sbsI118
g0
(g8
g2
Ntp2533
Rp2534
(dp2535
g12
Nsg13
(dp2536
sg19
Nsg20
I00
sbsI119
g0
(g8
g2
Ntp2537
Rp2538
(dp2539
g12
Nsg13
(dp2540
sg19
Nsg20
I01
sbsI120
g0
(g8
g2
Ntp2541
Rp2542
(dp2543
g12
Nsg13
(dp2544
sg19
Nsg20
I01
sbsI121
g0
(g8
g2
Ntp2545
Rp2546
(dp2547
g12
Nsg13
(dp2548
sg19
Nsg20
I00
sbsI122
g0
(g8
g2
Ntp2549
Rp2550
(dp2551
g12
Nsg13
(dp2552
sg19
Nsg20
I01
sbsI123
g0
(g8
g2
Ntp2553
Rp2554
(dp2555
g12
Nsg13
(dp2556
sg19
Nsg20
I00
sbsI124
g0
(g8
g2
Ntp2557
Rp2558
(dp2559
g12
Nsg13
(dp2560
sg19
Nsg20
I00
sbsI125
g0
(g8
g2
Ntp2561
Rp2562
(dp2563
g12
Nsg13
(dp2564
sg19
Nsg20
I00
sbsI126
g0
(g8
g2
Ntp2565
Rp2566
(dp2567
g12
Nsg13
(dp2568
sg19
Nsg20
I00
sbsI127
g0
(g8
g2
Ntp2569
Rp2570
(dp2571
g12
Nsg13
(dp2572
sg19
Nsg20
I00
sbsI128
g0
(g8
g2
Ntp2573
Rp2574
(dp2575
g12
Nsg13
(dp2576
sg19
Nsg20
I00
sbsI129
g0
(g8
g2
Ntp2577
Rp2578
(dp2579
g12
Nsg13
(dp2580
sg19
Nsg20
I01
sbsI130
g0
(g8
g2
Ntp2581
Rp2582
(dp2583
g12
Nsg13
(dp2584
sg19
Nsg20
I01
sbsI131
g0
(g8
g2
Ntp2585
Rp2586
(dp2587
g12
Nsg13
(dp2588
sg19
Nsg20
I01
sbsI132
g0
(g8
g2
Ntp2589
Rp2590
(dp2591
g12
Nsg13
(dp2592
sg19
Nsg20
I00
sbsI133
g0
(g8
g2
Ntp2593
Rp2594
(dp2595
g12
Nsg13
(dp2596
sg19
Nsg20
I00
sbsI134
g0
(g8
g2
Ntp2597
Rp2598
(dp2599
g12
Nsg13
(dp2600
sg19
Nsg20
I00
sbsI135
g0
(g8
g2
Ntp2601
Rp2602
(dp2603
g12
Nsg13
(dp2604
sg19
Nsg20
I00
sbsI136
g0
(g8
g2
Ntp2605
Rp2606
(dp2607
g12
Nsg13
(dp2608
sg19
Nsg20
I00
sbsI137
g0
(g8
g2
Ntp2609
Rp2610
(dp2611
g12
Nsg13
(dp2612
sg19
Nsg20
I00
sbsI138
g0
(g8
g2
Ntp2613
Rp2614
(dp2615
g12
Nsg13
(dp2616
sg19
Nsg20
I00
sbsI139
g0
(g8
g2
Ntp2617
Rp2618
(dp2619
g12
Nsg13
(dp2620
sg19
Nsg20
I00
sbsI140
g0
(g8
g2
Ntp2621
Rp2622
(dp2623
g12
Nsg13
(dp2624
sg19
Nsg20
I00
sbsI141
g0
(g8
g2
Ntp2625
Rp2626
(dp2627
g12
Nsg13
(dp2628
sg19
Nsg20
I01
sbsI142
g0
(g8
g2
Ntp2629
Rp2630
(dp2631
g12
Nsg13
(dp2632
sg19
Nsg20
I01
sbsI144
g0
(g8
g2
Ntp2633
Rp2634
(dp2635
g12
Nsg13
(dp2636
sg19
Nsg20
I00
sbsI145
g0
(g8
g2
Ntp2637
Rp2638
(dp2639
g12
Nsg13
(dp2640
sg19
Nsg20
I01
sbsI146
g0
(g8
g2
Ntp2641
Rp2642
(dp2643
g12
Nsg13
(dp2644
sg19
Nsg20
I00
sbsI147
g0
(g8
g2
Ntp2645
Rp2646
(dp2647
g12
Nsg13
(dp2648
sg19
Nsg20
I00
sbsI148
g0
(g8
g2
Ntp2649
Rp2650
(dp2651
g12
Nsg13
(dp2652
sg19
Nsg20
I00
sbsI149
g0
(g8
g2
Ntp2653
Rp2654
(dp2655
g12
Nsg13
(dp2656
sg19
Nsg20
I00
sbsI150
g0
(g8
g2
Ntp2657
Rp2658
(dp2659
g12
Nsg13
(dp2660
sg19
Nsg20
I00
sbsI151
g0
(g8
g2
Ntp2661
Rp2662
(dp2663
g12
Nsg13
(dp2664
sg19
Nsg20
I00
sbsI152
g0
(g8
g2
Ntp2665
Rp2666
(dp2667
g12
Nsg13
(dp2668
sg19
Nsg20
I00
sbsI153
g0
(g8
g2
Ntp2669
Rp2670
(dp2671
g12
Nsg13
(dp2672
sg19
Nsg20
I00
sbsI154
g0
(g8
g2
Ntp2673
Rp2674
(dp2675
g12
Nsg13
(dp2676
sg19
Nsg20
I01
sbsI157
g0
(g8
g2
Ntp2677
Rp2678
(dp2679
g12
Nsg13
(dp2680
sg19
Nsg20
I00
sbsI160
g0
(g8
g2
Ntp2681
Rp2682
(dp2683
g12
Nsg13
(dp2684
sg19
Nsg20
I00
sbsI161
g0
(g8
g2
Ntp2685
Rp2686
(dp2687
g12
Nsg13
(dp2688
sg19
Nsg20
I00
sbsI162
g0
(g8
g2
Ntp2689
Rp2690
(dp2691
g12
Nsg13
(dp2692
sg19
Nsg20
I00
sbsI168
g0
(g8
g2
Ntp2693
Rp2694
(dp2695
g12
Nsg13
(dp2696
sg19
Nsg20
I00
sbsI169
g0
(g8
g2
Ntp2697
Rp2698
(dp2699
g12
Nsg13
(dp2700
sg19
Nsg20
I01
sbsI170
g0
(g8
g2
Ntp2701
Rp2702
(dp2703
g12
Nsg13
(dp2704
sg19
Nsg20
I01
sbsI172
g0
(g8
g2
Ntp2705
Rp2706
(dp2707
g12
Nsg13
(dp2708
sg19
Nsg20
I00
sbsI184
g0
(g8
g2
Ntp2709
Rp2710
(dp2711
g12
Nsg13
(dp2712
sg19
Nsg20
I00
sbsI189
g0
(g8
g2
Ntp2713
Rp2714
(dp2715
g12
Nsg13
(dp2716
sg19
Nsg20
I00
sbssg19
I36
sg20
Nsbag0
(g8
g2
Ntp2717
Rp2718
(dp2719
g12
I01
sg13
(dp2720
I0
g0
(g8
g2
Ntp2721
Rp2722
(dp2723
g12
Nsg13
(dp2724
sg19
Nsg20
I00
sbsI1
g0
(g8
g2
Ntp2725
Rp2726
(dp2727
g12
Nsg13
(dp2728
sg19
Nsg20
I00
sbsI2
g0
(g8
g2
Ntp2729
Rp2730
(dp2731
g12
Nsg13
(dp2732
sg19
Nsg20
I00
sbsI3
g0
(g8
g2
Ntp2733
Rp2734
(dp2735
g12
Nsg13
(dp2736
sg19
Nsg20
I01
sbsI4
g0
(g8
g2
Ntp2737
Rp2738
(dp2739
g12
Nsg13
(dp2740
sg19
Nsg20
I01
sbsI5
g0
(g8
g2
Ntp2741
Rp2742
(dp2743
g12
Nsg13
(dp2744
sg19
Nsg20
I01
sbsI6
g0
(g8
g2
Ntp2745
Rp2746
(dp2747
g12
Nsg13
(dp2748
sg19
Nsg20
I01
sbsI7
g0
(g8
g2
Ntp2749
Rp2750
(dp2751
g12
Nsg13
(dp2752
sg19
Nsg20
I01
sbsI8
g0
(g8
g2
Ntp2753
Rp2754
(dp2755
g12
Nsg13
(dp2756
sg19
Nsg20
I01
sbsI9
g0
(g8
g2
Ntp2757
Rp2758
(dp2759
g12
Nsg13
(dp2760
sg19
Nsg20
I01
sbsI10
g0
(g8
g2
Ntp2761
Rp2762
(dp2763
g12
Nsg13
(dp2764
sg19
Nsg20
I00
sbsI11
g0
(g8
g2
Ntp2765
Rp2766
(dp2767
g12
Nsg13
(dp2768
sg19
Nsg20
I01
sbsI12
g0
(g8
g2
Ntp2769
Rp2770
(dp2771
g12
Nsg13
(dp2772
sg19
Nsg20
I01
sbsI13
g0
(g8
g2
Ntp2773
Rp2774
(dp2775
g12
Nsg13
(dp2776
sg19
Nsg20
I01
sbsI14
g0
(g8
g2
Ntp2777
Rp2778
(dp2779
g12
Nsg13
(dp2780
sg19
Nsg20
I01
sbssg19
I43
sg20
Nsbag0
(g8
g2
Ntp2781
Rp2782
(dp2783
g12
I01
sg13
(dp2784
I0
g0
(g8
g2
Ntp2785
Rp2786
(dp2787
g12
Nsg13
(dp2788
sg19
Nsg20
I01
sbsI1
g0
(g8
g2
Ntp2789
Rp2790
(dp2791
g12
Nsg13
(dp2792
sg19
Nsg20
I00
sbssg19
I19
sg20
Nsbag0
(g8
g2
Ntp2793
Rp2794
(dp2795
g12
I00
sg13
(dp2796
I0
g0
(g8
g2
Ntp2797
Rp2798
(dp2799
g12
Nsg13
(dp2800
sg19
Nsg20
I01
sbsI1
g0
(g8
g2
Ntp2801
Rp2802
(dp2803
g12
Nsg13
(dp2804
sg19
Nsg20
I01
sbsI2
g0
(g8
g2
Ntp2805
Rp2806
(dp2807
g12
Nsg13
(dp2808
sg19
Nsg20
I01
sbsI3
g0
(g8
g2
Ntp2809
Rp2810
(dp2811
g12
Nsg13
(dp2812
sg19
Nsg20
I00
sbsI4
g0
(g8
g2
Ntp2813
Rp2814
(dp2815
g12
Nsg13
(dp2816
sg19
Nsg20
I00
sbsI5
g0
(g8
g2
Ntp2817
Rp2818
(dp2819
g12
Nsg13
(dp2820
sg19
Nsg20
I01
sbsI6
g0
(g8
g2
Ntp2821
Rp2822
(dp2823
g12
Nsg13
(dp2824
sg19
Nsg20
I00
sbsI7
g0
(g8
g2
Ntp2825
Rp2826
(dp2827
g12
Nsg13
(dp2828
sg19
Nsg20
I00
sbsI8
g0
(g8
g2
Ntp2829
Rp2830
(dp2831
g12
Nsg13
(dp2832
sg19
Nsg20
I00
sbsI9
g0
(g8
g2
Ntp2833
Rp2834
(dp2835
g12
Nsg13
(dp2836
sg19
Nsg20
I00
sbsI10
g0
(g8
g2
Ntp2837
Rp2838
(dp2839
g12
Nsg13
(dp2840
sg19
Nsg20
I00
sbsI11
g0
(g8
g2
Ntp2841
Rp2842
(dp2843
g12
Nsg13
(dp2844
sg19
Nsg20
I01
sbsI12
g0
(g8
g2
Ntp2845
Rp2846
(dp2847
g12
Nsg13
(dp2848
sg19
Nsg20
I00
sbsI13
g0
(g8
g2
Ntp2849
Rp2850
(dp2851
g12
Nsg13
(dp2852
sg19
Nsg20
I01
sbsI14
g0
(g8
g2
Ntp2853
Rp2854
(dp2855
g12
Nsg13
(dp2856
sg19
Nsg20
I01
sbsI15
g0
(g8
g2
Ntp2857
Rp2858
(dp2859
g12
Nsg13
(dp2860
sg19
Nsg20
I00
sbsI16
g0
(g8
g2
Ntp2861
Rp2862
(dp2863
g12
Nsg13
(dp2864
sg19
Nsg20
I00
sbsI17
g0
(g8
g2
Ntp2865
Rp2866
(dp2867
g12
Nsg13
(dp2868
sg19
Nsg20
I00
sbsI18
g0
(g8
g2
Ntp2869
Rp2870
(dp2871
g12
Nsg13
(dp2872
sg19
Nsg20
I01
sbsI19
g0
(g8
g2
Ntp2873
Rp2874
(dp2875
g12
Nsg13
(dp2876
sg19
Nsg20
I01
sbsI20
g0
(g8
g2
Ntp2877
Rp2878
(dp2879
g12
Nsg13
(dp2880
sg19
Nsg20
I00
sbsI21
g0
(g8
g2
Ntp2881
Rp2882
(dp2883
g12
Nsg13
(dp2884
sg19
Nsg20
I01
sbsI22
g0
(g8
g2
Ntp2885
Rp2886
(dp2887
g12
Nsg13
(dp2888
sg19
Nsg20
I01
sbsI23
g0
(g8
g2
Ntp2889
Rp2890
(dp2891
g12
Nsg13
(dp2892
sg19
Nsg20
I01
sbsI24
g0
(g8
g2
Ntp2893
Rp2894
(dp2895
g12
Nsg13
(dp2896
sg19
Nsg20
I00
sbsI25
g0
(g8
g2
Ntp2897
Rp2898
(dp2899
g12
Nsg13
(dp2900
sg19
Nsg20
I00
sbsI26
g0
(g8
g2
Ntp2901
Rp2902
(dp2903
g12
Nsg13
(dp2904
sg19
Nsg20
I01
sbsI27
g0
(g8
g2
Ntp2905
Rp2906
(dp2907
g12
Nsg13
(dp2908
sg19
Nsg20
I01
sbsI28
g0
(g8
g2
Ntp2909
Rp2910
(dp2911
g12
Nsg13
(dp2912
sg19
Nsg20
I00
sbsI29
g0
(g8
g2
Ntp2913
Rp2914
(dp2915
g12
Nsg13
(dp2916
sg19
Nsg20
I01
sbsI30
g0
(g8
g2
Ntp2917
Rp2918
(dp2919
g12
Nsg13
(dp2920
sg19
Nsg20
I00
sbsI31
g0
(g8
g2
Ntp2921
Rp2922
(dp2923
g12
Nsg13
(dp2924
sg19
Nsg20
I00
sbsI32
g0
(g8
g2
Ntp2925
Rp2926
(dp2927
g12
Nsg13
(dp2928
sg19
Nsg20
I00
sbsI33
g0
(g8
g2
Ntp2929
Rp2930
(dp2931
g12
Nsg13
(dp2932
sg19
Nsg20
I00
sbsI34
g0
(g8
g2
Ntp2933
Rp2934
(dp2935
g12
Nsg13
(dp2936
sg19
Nsg20
I00
sbsI35
g0
(g8
g2
Ntp2937
Rp2938
(dp2939
g12
Nsg13
(dp2940
sg19
Nsg20
I01
sbsI36
g0
(g8
g2
Ntp2941
Rp2942
(dp2943
g12
Nsg13
(dp2944
sg19
Nsg20
I00
sbsI37
g0
(g8
g2
Ntp2945
Rp2946
(dp2947
g12
Nsg13
(dp2948
sg19
Nsg20
I01
sbsI38
g0
(g8
g2
Ntp2949
Rp2950
(dp2951
g12
Nsg13
(dp2952
sg19
Nsg20
I01
sbsI39
g0
(g8
g2
Ntp2953
Rp2954
(dp2955
g12
Nsg13
(dp2956
sg19
Nsg20
I01
sbsI40
g0
(g8
g2
Ntp2957
Rp2958
(dp2959
g12
Nsg13
(dp2960
sg19
Nsg20
I00
sbsI41
g0
(g8
g2
Ntp2961
Rp2962
(dp2963
g12
Nsg13
(dp2964
sg19
Nsg20
I00
sbsI42
g0
(g8
g2
Ntp2965
Rp2966
(dp2967
g12
Nsg13
(dp2968
sg19
Nsg20
I01
sbsI43
g0
(g8
g2
Ntp2969
Rp2970
(dp2971
g12
Nsg13
(dp2972
sg19
Nsg20
I00
sbsI44
g0
(g8
g2
Ntp2973
Rp2974
(dp2975
g12
Nsg13
(dp2976
sg19
Nsg20
I00
sbsI45
g0
(g8
g2
Ntp2977
Rp2978
(dp2979
g12
Nsg13
(dp2980
sg19
Nsg20
I00
sbsI46
g0
(g8
g2
Ntp2981
Rp2982
(dp2983
g12
Nsg13
(dp2984
sg19
Nsg20
I00
sbsI47
g0
(g8
g2
Ntp2985
Rp2986
(dp2987
g12
Nsg13
(dp2988
sg19
Nsg20
I01
sbsI48
g0
(g8
g2
Ntp2989
Rp2990
(dp2991
g12
Nsg13
(dp2992
sg19
Nsg20
I00
sbsI49
g0
(g8
g2
Ntp2993
Rp2994
(dp2995
g12
Nsg13
(dp2996
sg19
Nsg20
I01
sbsI50
g0
(g8
g2
Ntp2997
Rp2998
(dp2999
g12
Nsg13
(dp3000
sg19
Nsg20
I01
sbsI51
g0
(g8
g2
Ntp3001
Rp3002
(dp3003
g12
Nsg13
(dp3004
sg19
Nsg20
I01
sbsI52
g0
(g8
g2
Ntp3005
Rp3006
(dp3007
g12
Nsg13
(dp3008
sg19
Nsg20
I00
sbsI53
g0
(g8
g2
Ntp3009
Rp3010
(dp3011
g12
Nsg13
(dp3012
sg19
Nsg20
I01
sbsI54
g0
(g8
g2
Ntp3013
Rp3014
(dp3015
g12
Nsg13
(dp3016
sg19
Nsg20
I01
sbsI55
g0
(g8
g2
Ntp3017
Rp3018
(dp3019
g12
Nsg13
(dp3020
sg19
Nsg20
I00
sbsI56
g0
(g8
g2
Ntp3021
Rp3022
(dp3023
g12
Nsg13
(dp3024
sg19
Nsg20
I01
sbsI57
g0
(g8
g2
Ntp3025
Rp3026
(dp3027
g12
Nsg13
(dp3028
sg19
Nsg20
I01
sbsI58
g0
(g8
g2
Ntp3029
Rp3030
(dp3031
g12
Nsg13
(dp3032
sg19
Nsg20
I01
sbsI59
g0
(g8
g2
Ntp3033
Rp3034
(dp3035
g12
Nsg13
(dp3036
sg19
Nsg20
I00
sbsI60
g0
(g8
g2
Ntp3037
Rp3038
(dp3039
g12
Nsg13
(dp3040
sg19
Nsg20
I00
sbsI61
g0
(g8
g2
Ntp3041
Rp3042
(dp3043
g12
Nsg13
(dp3044
sg19
Nsg20
I01
sbsI62
g0
(g8
g2
Ntp3045
Rp3046
(dp3047
g12
Nsg13
(dp3048
sg19
Nsg20
I01
sbsI63
g0
(g8
g2
Ntp3049
Rp3050
(dp3051
g12
Nsg13
(dp3052
sg19
Nsg20
I00
sbsI64
g0
(g8
g2
Ntp3053
Rp3054
(dp3055
g12
Nsg13
(dp3056
sg19
Nsg20
I01
sbsI65
g0
(g8
g2
Ntp3057
Rp3058
(dp3059
g12
Nsg13
(dp3060
sg19
Nsg20
I00
sbsI66
g0
(g8
g2
Ntp3061
Rp3062
(dp3063
g12
Nsg13
(dp3064
sg19
Nsg20
I00
sbsI67
g0
(g8
g2
Ntp3065
Rp3066
(dp3067
g12
Nsg13
(dp3068
sg19
Nsg20
I00
sbsI68
g0
(g8
g2
Ntp3069
Rp3070
(dp3071
g12
Nsg13
(dp3072
sg19
Nsg20
I00
sbsI69
g0
(g8
g2
Ntp3073
Rp3074
(dp3075
g12
Nsg13
(dp3076
sg19
Nsg20
I01
sbsI70
g0
(g8
g2
Ntp3077
Rp3078
(dp3079
g12
Nsg13
(dp3080
sg19
Nsg20
I00
sbsI71
g0
(g8
g2
Ntp3081
Rp3082
(dp3083
g12
Nsg13
(dp3084
sg19
Nsg20
I00
sbsI72
g0
(g8
g2
Ntp3085
Rp3086
(dp3087
g12
Nsg13
(dp3088
sg19
Nsg20
I01
sbsI73
g0
(g8
g2
Ntp3089
Rp3090
(dp3091
g12
Nsg13
(dp3092
sg19
Nsg20
I01
sbsI74
g0
(g8
g2
Ntp3093
Rp3094
(dp3095
g12
Nsg13
(dp3096
sg19
Nsg20
I01
sbsI75
g0
(g8
g2
Ntp3097
Rp3098
(dp3099
g12
Nsg13
(dp3100
sg19
Nsg20
I00
sbsI76
g0
(g8
g2
Ntp3101
Rp3102
(dp3103
g12
Nsg13
(dp3104
sg19
Nsg20
I01
sbsI77
g0
(g8
g2
Ntp3105
Rp3106
(dp3107
g12
Nsg13
(dp3108
sg19
Nsg20
I01
sbsI78
g0
(g8
g2
Ntp3109
Rp3110
(dp3111
g12
Nsg13
(dp3112
sg19
Nsg20
I01
sbsI79
g0
(g8
g2
Ntp3113
Rp3114
(dp3115
g12
Nsg13
(dp3116
sg19
Nsg20
I01
sbsI80
g0
(g8
g2
Ntp3117
Rp3118
(dp3119
g12
Nsg13
(dp3120
sg19
Nsg20
I00
sbsI81
g0
(g8
g2
Ntp3121
Rp3122
(dp3123
g12
Nsg13
(dp3124
sg19
Nsg20
I00
sbsI82
g0
(g8
g2
Ntp3125
Rp3126
(dp3127
g12
Nsg13
(dp3128
sg19
Nsg20
I00
sbsI83
g0
(g8
g2
Ntp3129
Rp3130
(dp3131
g12
Nsg13
(dp3132
sg19
Nsg20
I01
sbsI84
g0
(g8
g2
Ntp3133
Rp3134
(dp3135
g12
Nsg13
(dp3136
sg19
Nsg20
I00
sbsI85
g0
(g8
g2
Ntp3137
Rp3138
(dp3139
g12
Nsg13
(dp3140
sg19
Nsg20
I00
sbsI86
g0
(g8
g2
Ntp3141
Rp3142
(dp3143
g12
Nsg13
(dp3144
sg19
Nsg20
I00
sbsI87
g0
(g8
g2
Ntp3145
Rp3146
(dp3147
g12
Nsg13
(dp3148
sg19
Nsg20
I00
sbsI88
g0
(g8
g2
Ntp3149
Rp3150
(dp3151
g12
Nsg13
(dp3152
sg19
Nsg20
I01
sbsI89
g0
(g8
g2
Ntp3153
Rp3154
(dp3155
g12
Nsg13
(dp3156
sg19
Nsg20
I00
sbsI90
g0
(g8
g2
Ntp3157
Rp3158
(dp3159
g12
Nsg13
(dp3160
sg19
Nsg20
I01
sbsI91
g0
(g8
g2
Ntp3161
Rp3162
(dp3163
g12
Nsg13
(dp3164
sg19
Nsg20
I00
sbsI92
g0
(g8
g2
Ntp3165
Rp3166
(dp3167
g12
Nsg13
(dp3168
sg19
Nsg20
I00
sbsI93
g0
(g8
g2
Ntp3169
Rp3170
(dp3171
g12
Nsg13
(dp3172
sg19
Nsg20
I00
sbsI94
g0
(g8
g2
Ntp3173
Rp3174
(dp3175
g12
Nsg13
(dp3176
sg19
Nsg20
I00
sbsI95
g0
(g8
g2
Ntp3177
Rp3178
(dp3179
g12
Nsg13
(dp3180
sg19
Nsg20
I01
sbsI96
g0
(g8
g2
Ntp3181
Rp3182
(dp3183
g12
Nsg13
(dp3184
sg19
Nsg20
I00
sbsI97
g0
(g8
g2
Ntp3185
Rp3186
(dp3187
g12
Nsg13
(dp3188
sg19
Nsg20
I01
sbsI98
g0
(g8
g2
Ntp3189
Rp3190
(dp3191
g12
Nsg13
(dp3192
sg19
Nsg20
I01
sbsI99
g0
(g8
g2
Ntp3193
Rp3194
(dp3195
g12
Nsg13
(dp3196
sg19
Nsg20
I00
sbsI100
g0
(g8
g2
Ntp3197
Rp3198
(dp3199
g12
Nsg13
(dp3200
sg19
Nsg20
I00
sbsI101
g0
(g8
g2
Ntp3201
Rp3202
(dp3203
g12
Nsg13
(dp3204
sg19
Nsg20
I01
sbsI102
g0
(g8
g2
Ntp3205
Rp3206
(dp3207
g12
Nsg13
(dp3208
sg19
Nsg20
I00
sbsI103
g0
(g8
g2
Ntp3209
Rp3210
(dp3211
g12
Nsg13
(dp3212
sg19
Nsg20
I00
sbsI104
g0
(g8
g2
Ntp3213
Rp3214
(dp3215
g12
Nsg13
(dp3216
sg19
Nsg20
I00
sbsI105
g0
(g8
g2
Ntp3217
Rp3218
(dp3219
g12
Nsg13
(dp3220
sg19
Nsg20
I00
sbsI106
g0
(g8
g2
Ntp3221
Rp3222
(dp3223
g12
Nsg13
(dp3224
sg19
Nsg20
I01
sbsI107
g0
(g8
g2
Ntp3225
Rp3226
(dp3227
g12
Nsg13
(dp3228
sg19
Nsg20
I00
sbsI108
g0
(g8
g2
Ntp3229
Rp3230
(dp3231
g12
Nsg13
(dp3232
sg19
Nsg20
I00
sbsI109
g0
(g8
g2
Ntp3233
Rp3234
(dp3235
g12
Nsg13
(dp3236
sg19
Nsg20
I01
sbsI110
g0
(g8
g2
Ntp3237
Rp3238
(dp3239
g12
Nsg13
(dp3240
sg19
Nsg20
I01
sbsI111
g0
(g8
g2
Ntp3241
Rp3242
(dp3243
g12
Nsg13
(dp3244
sg19
Nsg20
I00
sbsI112
g0
(g8
g2
Ntp3245
Rp3246
(dp3247
g12
Nsg13
(dp3248
sg19
Nsg20
I00
sbsI113
g0
(g8
g2
Ntp3249
Rp3250
(dp3251
g12
Nsg13
(dp3252
sg19
Nsg20
I00
sbsI114
g0
(g8
g2
Ntp3253
Rp3254
(dp3255
g12
Nsg13
(dp3256
sg19
Nsg20
I00
sbsI115
g0
(g8
g2
Ntp3257
Rp3258
(dp3259
g12
Nsg13
(dp3260
sg19
Nsg20
I00
sbsI116
g0
(g8
g2
Ntp3261
Rp3262
(dp3263
g12
Nsg13
(dp3264
sg19
Nsg20
I00
sbsI117
g0
(g8
g2
Ntp3265
Rp3266
(dp3267
g12
Nsg13
(dp3268
sg19
Nsg20
I00
sbsI118
g0
(g8
g2
Ntp3269
Rp3270
(dp3271
g12
Nsg13
(dp3272
sg19
Nsg20
I00
sbsI119
g0
(g8
g2
Ntp3273
Rp3274
(dp3275
g12
Nsg13
(dp3276
sg19
Nsg20
I01
sbsI120
g0
(g8
g2
Ntp3277
Rp3278
(dp3279
g12
Nsg13
(dp3280
sg19
Nsg20
I00
sbsI121
g0
(g8
g2
Ntp3281
Rp3282
(dp3283
g12
Nsg13
(dp3284
sg19
Nsg20
I00
sbsI122
g0
(g8
g2
Ntp3285
Rp3286
(dp3287
g12
Nsg13
(dp3288
sg19
Nsg20
I01
sbsI123
g0
(g8
g2
Ntp3289
Rp3290
(dp3291
g12
Nsg13
(dp3292
sg19
Nsg20
I00
sbsI124
g0
(g8
g2
Ntp3293
Rp3294
(dp3295
g12
Nsg13
(dp3296
sg19
Nsg20
I00
sbsI125
g0
(g8
g2
Ntp3297
Rp3298
(dp3299
g12
Nsg13
(dp3300
sg19
Nsg20
I00
sbsI126
g0
(g8
g2
Ntp3301
Rp3302
(dp3303
g12
Nsg13
(dp3304
sg19
Nsg20
I00
sbsI127
g0
(g8
g2
Ntp3305
Rp3306
(dp3307
g12
Nsg13
(dp3308
sg19
Nsg20
I00
sbsI128
g0
(g8
g2
Ntp3309
Rp3310
(dp3311
g12
Nsg13
(dp3312
sg19
Nsg20
I00
sbsI129
g0
(g8
g2
Ntp3313
Rp3314
(dp3315
g12
Nsg13
(dp3316
sg19
Nsg20
I01
sbsI130
g0
(g8
g2
Ntp3317
Rp3318
(dp3319
g12
Nsg13
(dp3320
sg19
Nsg20
I00
sbsI131
g0
(g8
g2
Ntp3321
Rp3322
(dp3323
g12
Nsg13
(dp3324
sg19
Nsg20
I01
sbsI132
g0
(g8
g2
Ntp3325
Rp3326
(dp3327
g12
Nsg13
(dp3328
sg19
Nsg20
I00
sbsI133
g0
(g8
g2
Ntp3329
Rp3330
(dp3331
g12
Nsg13
(dp3332
sg19
Nsg20
I00
sbsI134
g0
(g8
g2
Ntp3333
Rp3334
(dp3335
g12
Nsg13
(dp3336
sg19
Nsg20
I00
sbsI135
g0
(g8
g2
Ntp3337
Rp3338
(dp3339
g12
Nsg13
(dp3340
sg19
Nsg20
I00
sbsI136
g0
(g8
g2
Ntp3341
Rp3342
(dp3343
g12
Nsg13
(dp3344
sg19
Nsg20
I00
sbsI137
g0
(g8
g2
Ntp3345
Rp3346
(dp3347
g12
Nsg13
(dp3348
sg19
Nsg20
I00
sbsI138
g0
(g8
g2
Ntp3349
Rp3350
(dp3351
g12
Nsg13
(dp3352
sg19
Nsg20
I00
sbsI139
g0
(g8
g2
Ntp3353
Rp3354
(dp3355
g12
Nsg13
(dp3356
sg19
Nsg20
I00
sbsI140
g0
(g8
g2
Ntp3357
Rp3358
(dp3359
g12
Nsg13
(dp3360
sg19
Nsg20
I00
sbsI141
g0
(g8
g2
Ntp3361
Rp3362
(dp3363
g12
Nsg13
(dp3364
sg19
Nsg20
I00
sbsI142
g0
(g8
g2
Ntp3365
Rp3366
(dp3367
g12
Nsg13
(dp3368
sg19
Nsg20
I01
sbsI144
g0
(g8
g2
Ntp3369
Rp3370
(dp3371
g12
Nsg13
(dp3372
sg19
Nsg20
I00
sbsI145
g0
(g8
g2
Ntp3373
Rp3374
(dp3375
g12
Nsg13
(dp3376
sg19
Nsg20
I01
sbsI146
g0
(g8
g2
Ntp3377
Rp3378
(dp3379
g12
Nsg13
(dp3380
sg19
Nsg20
I00
sbsI147
g0
(g8
g2
Ntp3381
Rp3382
(dp3383
g12
Nsg13
(dp3384
sg19
Nsg20
I00
sbsI148
g0
(g8
g2
Ntp3385
Rp3386
(dp3387
g12
Nsg13
(dp3388
sg19
Nsg20
I00
sbsI149
g0
(g8
g2
Ntp3389
Rp3390
(dp3391
g12
Nsg13
(dp3392
sg19
Nsg20
I00
sbsI150
g0
(g8
g2
Ntp3393
Rp3394
(dp3395
g12
Nsg13
(dp3396
sg19
Nsg20
I00
sbsI151
g0
(g8
g2
Ntp3397
Rp3398
(dp3399
g12
Nsg13
(dp3400
sg19
Nsg20
I00
sbsI152
g0
(g8
g2
Ntp3401
Rp3402
(dp3403
g12
Nsg13
(dp3404
sg19
Nsg20
I00
sbsI153
g0
(g8
g2
Ntp3405
Rp3406
(dp3407
g12
Nsg13
(dp3408
sg19
Nsg20
I00
sbsI154
g0
(g8
g2
Ntp3409
Rp3410
(dp3411
g12
Nsg13
(dp3412
sg19
Nsg20
I01
sbsI157
g0
(g8
g2
Ntp3413
Rp3414
(dp3415
g12
Nsg13
(dp3416
sg19
Nsg20
I00
sbsI160
g0
(g8
g2
Ntp3417
Rp3418
(dp3419
g12
Nsg13
(dp3420
sg19
Nsg20
I00
sbsI161
g0
(g8
g2
Ntp3421
Rp3422
(dp3423
g12
Nsg13
(dp3424
sg19
Nsg20
I00
sbsI162
g0
(g8
g2
Ntp3425
Rp3426
(dp3427
g12
Nsg13
(dp3428
sg19
Nsg20
I00
sbsI168
g0
(g8
g2
Ntp3429
Rp3430
(dp3431
g12
Nsg13
(dp3432
sg19
Nsg20
I00
sbsI169
g0
(g8
g2
Ntp3433
Rp3434
(dp3435
g12
Nsg13
(dp3436
sg19
Nsg20
I01
sbsI170
g0
(g8
g2
Ntp3437
Rp3438
(dp3439
g12
Nsg13
(dp3440
sg19
Nsg20
I00
sbsI172
g0
(g8
g2
Ntp3441
Rp3442
(dp3443
g12
Nsg13
(dp3444
sg19
Nsg20
I00
sbsI184
g0
(g8
g2
Ntp3445
Rp3446
(dp3447
g12
Nsg13
(dp3448
sg19
Nsg20
I00
sbsI189
g0
(g8
g2
Ntp3449
Rp3450
(dp3451
g12
Nsg13
(dp3452
sg19
Nsg20
I00
sbssg19
I36
sg20
Nsbag0
(g8
g2
Ntp3453
Rp3454
(dp3455
g12
I00
sg13
(dp3456
I0
g0
(g8
g2
Ntp3457
Rp3458
(dp3459
g12
Nsg13
(dp3460
sg19
Nsg20
I00
sbsI1
g0
(g8
g2
Ntp3461
Rp3462
(dp3463
g12
Nsg13
(dp3464
sg19
Nsg20
I00
sbsI2
g0
(g8
g2
Ntp3465
Rp3466
(dp3467
g12
Nsg13
(dp3468
sg19
Nsg20
I00
sbsI3
g0
(g8
g2
Ntp3469
Rp3470
(dp3471
g12
Nsg13
(dp3472
sg19
Nsg20
I01
sbsI4
g0
(g8
g2
Ntp3473
Rp3474
(dp3475
g12
Nsg13
(dp3476
sg19
Nsg20
I01
sbsI5
g0
(g8
g2
Ntp3477
Rp3478
(dp3479
g12
Nsg13
(dp3480
sg19
Nsg20
I01
sbsI6
g0
(g8
g2
Ntp3481
Rp3482
(dp3483
g12
Nsg13
(dp3484
sg19
Nsg20
I01
sbsI7
g0
(g8
g2
Ntp3485
Rp3486
(dp3487
g12
Nsg13
(dp3488
sg19
Nsg20
I01
sbsI8
g0
(g8
g2
Ntp3489
Rp3490
(dp3491
g12
Nsg13
(dp3492
sg19
Nsg20
I01
sbsI9
g0
(g8
g2
Ntp3493
Rp3494
(dp3495
g12
Nsg13
(dp3496
sg19
Nsg20
I01
sbsI10
g0
(g8
g2
Ntp3497
Rp3498
(dp3499
g12
Nsg13
(dp3500
sg19
Nsg20
I00
sbsI11
g0
(g8
g2
Ntp3501
Rp3502
(dp3503
g12
Nsg13
(dp3504
sg19
Nsg20
I01
sbsI12
g0
(g8
g2
Ntp3505
Rp3506
(dp3507
g12
Nsg13
(dp3508
sg19
Nsg20
I01
sbsI13
g0
(g8
g2
Ntp3509
Rp3510
(dp3511
g12
Nsg13
(dp3512
sg19
Nsg20
I01
sbsI14
g0
(g8
g2
Ntp3513
Rp3514
(dp3515
g12
Nsg13
(dp3516
sg19
Nsg20
I01
sbssg19
I43
sg20
Nsbag0
(g8
g2
Ntp3517
Rp3518
(dp3519
g12
I01
sg13
(dp3520
I0
g0
(g8
g2
Ntp3521
Rp3522
(dp3523
g12
Nsg13
(dp3524
sg19
Nsg20
I01
sbsI1
g0
(g8
g2
Ntp3525
Rp3526
(dp3527
g12
Nsg13
(dp3528
sg19
Nsg20
I01
sbsI2
g0
(g8
g2
Ntp3529
Rp3530
(dp3531
g12
Nsg13
(dp3532
sg19
Nsg20
I01
sbsI3
g0
(g8
g2
Ntp3533
Rp3534
(dp3535
g12
Nsg13
(dp3536
sg19
Nsg20
I01
sbsI4
g0
(g8
g2
Ntp3537
Rp3538
(dp3539
g12
Nsg13
(dp3540
sg19
Nsg20
I00
sbsI5
g0
(g8
g2
Ntp3541
Rp3542
(dp3543
g12
Nsg13
(dp3544
sg19
Nsg20
I00
sbsI6
g0
(g8
g2
Ntp3545
Rp3546
(dp3547
g12
Nsg13
(dp3548
sg19
Nsg20
I00
sbsI7
g0
(g8
g2
Ntp3549
Rp3550
(dp3551
g12
Nsg13
(dp3552
sg19
Nsg20
I01
sbsI8
g0
(g8
g2
Ntp3553
Rp3554
(dp3555
g12
Nsg13
(dp3556
sg19
Nsg20
I01
sbsI9
g0
(g8
g2
Ntp3557
Rp3558
(dp3559
g12
Nsg13
(dp3560
sg19
Nsg20
I01
sbsI10
g0
(g8
g2
Ntp3561
Rp3562
(dp3563
g12
Nsg13
(dp3564
sg19
Nsg20
I01
sbsI11
g0
(g8
g2
Ntp3565
Rp3566
(dp3567
g12
Nsg13
(dp3568
sg19
Nsg20
I00
sbsI12
g0
(g8
g2
Ntp3569
Rp3570
(dp3571
g12
Nsg13
(dp3572
sg19
Nsg20
I01
sbsI13
g0
(g8
g2
Ntp3573
Rp3574
(dp3575
g12
Nsg13
(dp3576
sg19
Nsg20
I00
sbsI14
g0
(g8
g2
Ntp3577
Rp3578
(dp3579
g12
Nsg13
(dp3580
sg19
Nsg20
I00
sbsI15
g0
(g8
g2
Ntp3581
Rp3582
(dp3583
g12
Nsg13
(dp3584
sg19
Nsg20
I01
sbsI16
g0
(g8
g2
Ntp3585
Rp3586
(dp3587
g12
Nsg13
(dp3588
sg19
Nsg20
I01
sbsI17
g0
(g8
g2
Ntp3589
Rp3590
(dp3591
g12
Nsg13
(dp3592
sg19
Nsg20
I01
sbsI18
g0
(g8
g2
Ntp3593
Rp3594
(dp3595
g12
Nsg13
(dp3596
sg19
Nsg20
I01
sbsI19
g0
(g8
g2
Ntp3597
Rp3598
(dp3599
g12
Nsg13
(dp3600
sg19
Nsg20
I01
sbsI20
g0
(g8
g2
Ntp3601
Rp3602
(dp3603
g12
Nsg13
(dp3604
sg19
Nsg20
I01
sbsI21
g0
(g8
g2
Ntp3605
Rp3606
(dp3607
g12
Nsg13
(dp3608
sg19
Nsg20
I01
sbsI22
g0
(g8
g2
Ntp3609
Rp3610
(dp3611
g12
Nsg13
(dp3612
sg19
Nsg20
I01
sbsI23
g0
(g8
g2
Ntp3613
Rp3614
(dp3615
g12
Nsg13
(dp3616
sg19
Nsg20
I01
sbsI24
g0
(g8
g2
Ntp3617
Rp3618
(dp3619
g12
Nsg13
(dp3620
sg19
Nsg20
I01
sbsI25
g0
(g8
g2
Ntp3621
Rp3622
(dp3623
g12
Nsg13
(dp3624
sg19
Nsg20
I01
sbsI26
g0
(g8
g2
Ntp3625
Rp3626
(dp3627
g12
Nsg13
(dp3628
sg19
Nsg20
I01
sbsI27
g0
(g8
g2
Ntp3629
Rp3630
(dp3631
g12
Nsg13
(dp3632
sg19
Nsg20
I00
sbsI28
g0
(g8
g2
Ntp3633
Rp3634
(dp3635
g12
Nsg13
(dp3636
sg19
Nsg20
I01
sbsI29
g0
(g8
g2
Ntp3637
Rp3638
(dp3639
g12
Nsg13
(dp3640
sg19
Nsg20
I00
sbsI30
g0
(g8
g2
Ntp3641
Rp3642
(dp3643
g12
Nsg13
(dp3644
sg19
Nsg20
I01
sbsI31
g0
(g8
g2
Ntp3645
Rp3646
(dp3647
g12
Nsg13
(dp3648
sg19
Nsg20
I01
sbsI32
g0
(g8
g2
Ntp3649
Rp3650
(dp3651
g12
Nsg13
(dp3652
sg19
Nsg20
I01
sbsI33
g0
(g8
g2
Ntp3653
Rp3654
(dp3655
g12
Nsg13
(dp3656
sg19
Nsg20
I01
sbsI34
g0
(g8
g2
Ntp3657
Rp3658
(dp3659
g12
Nsg13
(dp3660
sg19
Nsg20
I01
sbsI35
g0
(g8
g2
Ntp3661
Rp3662
(dp3663
g12
Nsg13
(dp3664
sg19
Nsg20
I01
sbsI36
g0
(g8
g2
Ntp3665
Rp3666
(dp3667
g12
Nsg13
(dp3668
sg19
Nsg20
I00
sbsI37
g0
(g8
g2
Ntp3669
Rp3670
(dp3671
g12
Nsg13
(dp3672
sg19
Nsg20
I01
sbsI38
g0
(g8
g2
Ntp3673
Rp3674
(dp3675
g12
Nsg13
(dp3676
sg19
Nsg20
I01
sbsI39
g0
(g8
g2
Ntp3677
Rp3678
(dp3679
g12
Nsg13
(dp3680
sg19
Nsg20
I01
sbsI40
g0
(g8
g2
Ntp3681
Rp3682
(dp3683
g12
Nsg13
(dp3684
sg19
Nsg20
I01
sbsI41
g0
(g8
g2
Ntp3685
Rp3686
(dp3687
g12
Nsg13
(dp3688
sg19
Nsg20
I01
sbsI42
g0
(g8
g2
Ntp3689
Rp3690
(dp3691
g12
Nsg13
(dp3692
sg19
Nsg20
I01
sbsI43
g0
(g8
g2
Ntp3693
Rp3694
(dp3695
g12
Nsg13
(dp3696
sg19
Nsg20
I01
sbsI44
g0
(g8
g2
Ntp3697
Rp3698
(dp3699
g12
Nsg13
(dp3700
sg19
Nsg20
I01
sbsI45
g0
(g8
g2
Ntp3701
Rp3702
(dp3703
g12
Nsg13
(dp3704
sg19
Nsg20
I01
sbsI46
g0
(g8
g2
Ntp3705
Rp3706
(dp3707
g12
Nsg13
(dp3708
sg19
Nsg20
I01
sbsI47
g0
(g8
g2
Ntp3709
Rp3710
(dp3711
g12
Nsg13
(dp3712
sg19
Nsg20
I01
sbsI48
g0
(g8
g2
Ntp3713
Rp3714
(dp3715
g12
Nsg13
(dp3716
sg19
Nsg20
I01
sbsI49
g0
(g8
g2
Ntp3717
Rp3718
(dp3719
g12
Nsg13
(dp3720
sg19
Nsg20
I01
sbsI50
g0
(g8
g2
Ntp3721
Rp3722
(dp3723
g12
Nsg13
(dp3724
sg19
Nsg20
I01
sbsI51
g0
(g8
g2
Ntp3725
Rp3726
(dp3727
g12
Nsg13
(dp3728
sg19
Nsg20
I01
sbsI52
g0
(g8
g2
Ntp3729
Rp3730
(dp3731
g12
Nsg13
(dp3732
sg19
Nsg20
I01
sbsI53
g0
(g8
g2
Ntp3733
Rp3734
(dp3735
g12
Nsg13
(dp3736
sg19
Nsg20
I01
sbsI54
g0
(g8
g2
Ntp3737
Rp3738
(dp3739
g12
Nsg13
(dp3740
sg19
Nsg20
I01
sbsI55
g0
(g8
g2
Ntp3741
Rp3742
(dp3743
g12
Nsg13
(dp3744
sg19
Nsg20
I01
sbsI56
g0
(g8
g2
Ntp3745
Rp3746
(dp3747
g12
Nsg13
(dp3748
sg19
Nsg20
I01
sbsI57
g0
(g8
g2
Ntp3749
Rp3750
(dp3751
g12
Nsg13
(dp3752
sg19
Nsg20
I01
sbsI58
g0
(g8
g2
Ntp3753
Rp3754
(dp3755
g12
Nsg13
(dp3756
sg19
Nsg20
I01
sbsI59
g0
(g8
g2
Ntp3757
Rp3758
(dp3759
g12
Nsg13
(dp3760
sg19
Nsg20
I01
sbsI60
g0
(g8
g2
Ntp3761
Rp3762
(dp3763
g12
Nsg13
(dp3764
sg19
Nsg20
I01
sbsI61
g0
(g8
g2
Ntp3765
Rp3766
(dp3767
g12
Nsg13
(dp3768
sg19
Nsg20
I00
sbsI62
g0
(g8
g2
Ntp3769
Rp3770
(dp3771
g12
Nsg13
(dp3772
sg19
Nsg20
I01
sbsI63
g0
(g8
g2
Ntp3773
Rp3774
(dp3775
g12
Nsg13
(dp3776
sg19
Nsg20
I01
sbsI64
g0
(g8
g2
Ntp3777
Rp3778
(dp3779
g12
Nsg13
(dp3780
sg19
Nsg20
I01
sbsI65
g0
(g8
g2
Ntp3781
Rp3782
(dp3783
g12
Nsg13
(dp3784
sg19
Nsg20
I01
sbsI66
g0
(g8
g2
Ntp3785
Rp3786
(dp3787
g12
Nsg13
(dp3788
sg19
Nsg20
I01
sbsI67
g0
(g8
g2
Ntp3789
Rp3790
(dp3791
g12
Nsg13
(dp3792
sg19
Nsg20
I01
sbsI68
g0
(g8
g2
Ntp3793
Rp3794
(dp3795
g12
Nsg13
(dp3796
sg19
Nsg20
I00
sbsI69
g0
(g8
g2
Ntp3797
Rp3798
(dp3799
g12
Nsg13
(dp3800
sg19
Nsg20
I01
sbsI70
g0
(g8
g2
Ntp3801
Rp3802
(dp3803
g12
Nsg13
(dp3804
sg19
Nsg20
I01
sbsI71
g0
(g8
g2
Ntp3805
Rp3806
(dp3807
g12
Nsg13
(dp3808
sg19
Nsg20
I01
sbsI72
g0
(g8
g2
Ntp3809
Rp3810
(dp3811
g12
Nsg13
(dp3812
sg19
Nsg20
I00
sbsI73
g0
(g8
g2
Ntp3813
Rp3814
(dp3815
g12
Nsg13
(dp3816
sg19
Nsg20
I01
sbsI74
g0
(g8
g2
Ntp3817
Rp3818
(dp3819
g12
Nsg13
(dp3820
sg19
Nsg20
I01
sbsI75
g0
(g8
g2
Ntp3821
Rp3822
(dp3823
g12
Nsg13
(dp3824
sg19
Nsg20
I01
sbsI76
g0
(g8
g2
Ntp3825
Rp3826
(dp3827
g12
Nsg13
(dp3828
sg19
Nsg20
I01
sbsI77
g0
(g8
g2
Ntp3829
Rp3830
(dp3831
g12
Nsg13
(dp3832
sg19
Nsg20
I00
sbsI78
g0
(g8
g2
Ntp3833
Rp3834
(dp3835
g12
Nsg13
(dp3836
sg19
Nsg20
I01
sbsI79
g0
(g8
g2
Ntp3837
Rp3838
(dp3839
g12
Nsg13
(dp3840
sg19
Nsg20
I01
sbsI80
g0
(g8
g2
Ntp3841
Rp3842
(dp3843
g12
Nsg13
(dp3844
sg19
Nsg20
I00
sbsI81
g0
(g8
g2
Ntp3845
Rp3846
(dp3847
g12
Nsg13
(dp3848
sg19
Nsg20
I00
sbsI82
g0
(g8
g2
Ntp3849
Rp3850
(dp3851
g12
Nsg13
(dp3852
sg19
Nsg20
I01
sbsI83
g0
(g8
g2
Ntp3853
Rp3854
(dp3855
g12
Nsg13
(dp3856
sg19
Nsg20
I01
sbsI84
g0
(g8
g2
Ntp3857
Rp3858
(dp3859
g12
Nsg13
(dp3860
sg19
Nsg20
I01
sbsI85
g0
(g8
g2
Ntp3861
Rp3862
(dp3863
g12
Nsg13
(dp3864
sg19
Nsg20
I00
sbsI86
g0
(g8
g2
Ntp3865
Rp3866
(dp3867
g12
Nsg13
(dp3868
sg19
Nsg20
I01
sbsI87
g0
(g8
g2
Ntp3869
Rp3870
(dp3871
g12
Nsg13
(dp3872
sg19
Nsg20
I00
sbsI88
g0
(g8
g2
Ntp3873
Rp3874
(dp3875
g12
Nsg13
(dp3876
sg19
Nsg20
I01
sbsI89
g0
(g8
g2
Ntp3877
Rp3878
(dp3879
g12
Nsg13
(dp3880
sg19
Nsg20
I01
sbsI90
g0
(g8
g2
Ntp3881
Rp3882
(dp3883
g12
Nsg13
(dp3884
sg19
Nsg20
I01
sbsI91
g0
(g8
g2
Ntp3885
Rp3886
(dp3887
g12
Nsg13
(dp3888
sg19
Nsg20
I01
sbsI92
g0
(g8
g2
Ntp3889
Rp3890
(dp3891
g12
Nsg13
(dp3892
sg19
Nsg20
I00
sbsI93
g0
(g8
g2
Ntp3893
Rp3894
(dp3895
g12
Nsg13
(dp3896
sg19
Nsg20
I01
sbsI94
g0
(g8
g2
Ntp3897
Rp3898
(dp3899
g12
Nsg13
(dp3900
sg19
Nsg20
I00
sbsI95
g0
(g8
g2
Ntp3901
Rp3902
(dp3903
g12
Nsg13
(dp3904
sg19
Nsg20
I01
sbsI96
g0
(g8
g2
Ntp3905
Rp3906
(dp3907
g12
Nsg13
(dp3908
sg19
Nsg20
I01
sbsI97
g0
(g8
g2
Ntp3909
Rp3910
(dp3911
g12
Nsg13
(dp3912
sg19
Nsg20
I01
sbsI98
g0
(g8
g2
Ntp3913
Rp3914
(dp3915
g12
Nsg13
(dp3916
sg19
Nsg20
I01
sbsI99
g0
(g8
g2
Ntp3917
Rp3918
(dp3919
g12
Nsg13
(dp3920
sg19
Nsg20
I01
sbsI100
g0
(g8
g2
Ntp3921
Rp3922
(dp3923
g12
Nsg13
(dp3924
sg19
Nsg20
I00
sbsI101
g0
(g8
g2
Ntp3925
Rp3926
(dp3927
g12
Nsg13
(dp3928
sg19
Nsg20
I01
sbsI102
g0
(g8
g2
Ntp3929
Rp3930
(dp3931
g12
Nsg13
(dp3932
sg19
Nsg20
I00
sbsI103
g0
(g8
g2
Ntp3933
Rp3934
(dp3935
g12
Nsg13
(dp3936
sg19
Nsg20
I00
sbsI104
g0
(g8
g2
Ntp3937
Rp3938
(dp3939
g12
Nsg13
(dp3940
sg19
Nsg20
I01
sbsI105
g0
(g8
g2
Ntp3941
Rp3942
(dp3943
g12
Nsg13
(dp3944
sg19
Nsg20
I01
sbsI106
g0
(g8
g2
Ntp3945
Rp3946
(dp3947
g12
Nsg13
(dp3948
sg19
Nsg20
I00
sbsI107
g0
(g8
g2
Ntp3949
Rp3950
(dp3951
g12
Nsg13
(dp3952
sg19
Nsg20
I00
sbsI108
g0
(g8
g2
Ntp3953
Rp3954
(dp3955
g12
Nsg13
(dp3956
sg19
Nsg20
I00
sbsI109
g0
(g8
g2
Ntp3957
Rp3958
(dp3959
g12
Nsg13
(dp3960
sg19
Nsg20
I00
sbsI110
g0
(g8
g2
Ntp3961
Rp3962
(dp3963
g12
Nsg13
(dp3964
sg19
Nsg20
I01
sbsI111
g0
(g8
g2
Ntp3965
Rp3966
(dp3967
g12
Nsg13
(dp3968
sg19
Nsg20
I00
sbsI112
g0
(g8
g2
Ntp3969
Rp3970
(dp3971
g12
Nsg13
(dp3972
sg19
Nsg20
I01
sbsI113
g0
(g8
g2
Ntp3973
Rp3974
(dp3975
g12
Nsg13
(dp3976
sg19
Nsg20
I00
sbsI114
g0
(g8
g2
Ntp3977
Rp3978
(dp3979
g12
Nsg13
(dp3980
sg19
Nsg20
I01
sbsI115
g0
(g8
g2
Ntp3981
Rp3982
(dp3983
g12
Nsg13
(dp3984
sg19
Nsg20
I00
sbsI116
g0
(g8
g2
Ntp3985
Rp3986
(dp3987
g12
Nsg13
(dp3988
sg19
Nsg20
I00
sbsI117
g0
(g8
g2
Ntp3989
Rp3990
(dp3991
g12
Nsg13
(dp3992
sg19
Nsg20
I01
sbsI118
g0
(g8
g2
Ntp3993
Rp3994
(dp3995
g12
Nsg13
(dp3996
sg19
Nsg20
I00
sbsI119
g0
(g8
g2
Ntp3997
Rp3998
(dp3999
g12
Nsg13
(dp4000
sg19
Nsg20
I01
sbsI120
g0
(g8
g2
Ntp4001
Rp4002
(dp4003
g12
Nsg13
(dp4004
sg19
Nsg20
I01
sbsI121
g0
(g8
g2
Ntp4005
Rp4006
(dp4007
g12
Nsg13
(dp4008
sg19
Nsg20
I00
sbsI122
g0
(g8
g2
Ntp4009
Rp4010
(dp4011
g12
Nsg13
(dp4012
sg19
Nsg20
I01
sbsI123
g0
(g8
g2
Ntp4013
Rp4014
(dp4015
g12
Nsg13
(dp4016
sg19
Nsg20
I00
sbsI124
g0
(g8
g2
Ntp4017
Rp4018
(dp4019
g12
Nsg13
(dp4020
sg19
Nsg20
I00
sbsI125
g0
(g8
g2
Ntp4021
Rp4022
(dp4023
g12
Nsg13
(dp4024
sg19
Nsg20
I00
sbsI126
g0
(g8
g2
Ntp4025
Rp4026
(dp4027
g12
Nsg13
(dp4028
sg19
Nsg20
I00
sbsI127
g0
(g8
g2
Ntp4029
Rp4030
(dp4031
g12
Nsg13
(dp4032
sg19
Nsg20
I00
sbsI128
g0
(g8
g2
Ntp4033
Rp4034
(dp4035
g12
Nsg13
(dp4036
sg19
Nsg20
I00
sbsI129
g0
(g8
g2
Ntp4037
Rp4038
(dp4039
g12
Nsg13
(dp4040
sg19
Nsg20
I01
sbsI130
g0
(g8
g2
Ntp4041
Rp4042
(dp4043
g12
Nsg13
(dp4044
sg19
Nsg20
I01
sbsI131
g0
(g8
g2
Ntp4045
Rp4046
(dp4047
g12
Nsg13
(dp4048
sg19
Nsg20
I01
sbsI132
g0
(g8
g2
Ntp4049
Rp4050
(dp4051
g12
Nsg13
(dp4052
sg19
Nsg20
I00
sbsI133
g0
(g8
g2
Ntp4053
Rp4054
(dp4055
g12
Nsg13
(dp4056
sg19
Nsg20
I00
sbsI134
g0
(g8
g2
Ntp4057
Rp4058
(dp4059
g12
Nsg13
(dp4060
sg19
Nsg20
I00
sbsI135
g0
(g8
g2
Ntp4061
Rp4062
(dp4063
g12
Nsg13
(dp4064
sg19
Nsg20
I00
sbsI136
g0
(g8
g2
Ntp4065
Rp4066
(dp4067
g12
Nsg13
(dp4068
sg19
Nsg20
I00
sbsI137
g0
(g8
g2
Ntp4069
Rp4070
(dp4071
g12
Nsg13
(dp4072
sg19
Nsg20
I00
sbsI138
g0
(g8
g2
Ntp4073
Rp4074
(dp4075
g12
Nsg13
(dp4076
sg19
Nsg20
I00
sbsI139
g0
(g8
g2
Ntp4077
Rp4078
(dp4079
g12
Nsg13
(dp4080
sg19
Nsg20
I00
sbsI140
g0
(g8
g2
Ntp4081
Rp4082
(dp4083
g12
Nsg13
(dp4084
sg19
Nsg20
I00
sbsI141
g0
(g8
g2
Ntp4085
Rp4086
(dp4087
g12
Nsg13
(dp4088
sg19
Nsg20
I00
sbsI142
g0
(g8
g2
Ntp4089
Rp4090
(dp4091
g12
Nsg13
(dp4092
sg19
Nsg20
I01
sbsI144
g0
(g8
g2
Ntp4093
Rp4094
(dp4095
g12
Nsg13
(dp4096
sg19
Nsg20
I00
sbsI145
g0
(g8
g2
Ntp4097
Rp4098
(dp4099
g12
Nsg13
(dp4100
sg19
Nsg20
I01
sbsI146
g0
(g8
g2
Ntp4101
Rp4102
(dp4103
g12
Nsg13
(dp4104
sg19
Nsg20
I00
sbsI147
g0
(g8
g2
Ntp4105
Rp4106
(dp4107
g12
Nsg13
(dp4108
sg19
Nsg20
I00
sbsI148
g0
(g8
g2
Ntp4109
Rp4110
(dp4111
g12
Nsg13
(dp4112
sg19
Nsg20
I00
sbsI149
g0
(g8
g2
Ntp4113
Rp4114
(dp4115
g12
Nsg13
(dp4116
sg19
Nsg20
I00
sbsI150
g0
(g8
g2
Ntp4117
Rp4118
(dp4119
g12
Nsg13
(dp4120
sg19
Nsg20
I00
sbsI151
g0
(g8
g2
Ntp4121
Rp4122
(dp4123
g12
Nsg13
(dp4124
sg19
Nsg20
I00
sbsI152
g0
(g8
g2
Ntp4125
Rp4126
(dp4127
g12
Nsg13
(dp4128
sg19
Nsg20
I00
sbsI153
g0
(g8
g2
Ntp4129
Rp4130
(dp4131
g12
Nsg13
(dp4132
sg19
Nsg20
I00
sbsI154
g0
(g8
g2
Ntp4133
Rp4134
(dp4135
g12
Nsg13
(dp4136
sg19
Nsg20
I01
sbsI157
g0
(g8
g2
Ntp4137
Rp4138
(dp4139
g12
Nsg13
(dp4140
sg19
Nsg20
I00
sbsI160
g0
(g8
g2
Ntp4141
Rp4142
(dp4143
g12
Nsg13
(dp4144
sg19
Nsg20
I00
sbsI161
g0
(g8
g2
Ntp4145
Rp4146
(dp4147
g12
Nsg13
(dp4148
sg19
Nsg20
I00
sbsI162
g0
(g8
g2
Ntp4149
Rp4150
(dp4151
g12
Nsg13
(dp4152
sg19
Nsg20
I00
sbsI168
g0
(g8
g2
Ntp4153
Rp4154
(dp4155
g12
Nsg13
(dp4156
sg19
Nsg20
I00
sbsI169
g0
(g8
g2
Ntp4157
Rp4158
(dp4159
g12
Nsg13
(dp4160
sg19
Nsg20
I01
sbsI170
g0
(g8
g2
Ntp4161
Rp4162
(dp4163
g12
Nsg13
(dp4164
sg19
Nsg20
I01
sbsI172
g0
(g8
g2
Ntp4165
Rp4166
(dp4167
g12
Nsg13
(dp4168
sg19
Nsg20
I00
sbsI184
g0
(g8
g2
Ntp4169
Rp4170
(dp4171
g12
Nsg13
(dp4172
sg19
Nsg20
I00
sbsI189
g0
(g8
g2
Ntp4173
Rp4174
(dp4175
g12
Nsg13
(dp4176
sg19
Nsg20
I00
sbssg19
I36
sg20
Nsbag0
(g8
g2
Ntp4177
Rp4178
(dp4179
g12
I00
sg13
(dp4180
I0
g0
(g8
g2
Ntp4181
Rp4182
(dp4183
g12
Nsg13
(dp4184
sg19
Nsg20
I00
sbsI1
g0
(g8
g2
Ntp4185
Rp4186
(dp4187
g12
Nsg13
(dp4188
sg19
Nsg20
I00
sbsI2
g0
(g8
g2
Ntp4189
Rp4190
(dp4191
g12
Nsg13
(dp4192
sg19
Nsg20
I00
sbsI3
g0
(g8
g2
Ntp4193
Rp4194
(dp4195
g12
Nsg13
(dp4196
sg19
Nsg20
I00
sbsI4
g0
(g8
g2
Ntp4197
Rp4198
(dp4199
g12
Nsg13
(dp4200
sg19
Nsg20
I01
sbsI5
g0
(g8
g2
Ntp4201
Rp4202
(dp4203
g12
Nsg13
(dp4204
sg19
Nsg20
I01
sbsI6
g0
(g8
g2
Ntp4205
Rp4206
(dp4207
g12
Nsg13
(dp4208
sg19
Nsg20
I01
sbsI7
g0
(g8
g2
Ntp4209
Rp4210
(dp4211
g12
Nsg13
(dp4212
sg19
Nsg20
I01
sbsI8
g0
(g8
g2
Ntp4213
Rp4214
(dp4215
g12
Nsg13
(dp4216
sg19
Nsg20
I01
sbsI9
g0
(g8
g2
Ntp4217
Rp4218
(dp4219
g12
Nsg13
(dp4220
sg19
Nsg20
I01
sbsI10
g0
(g8
g2
Ntp4221
Rp4222
(dp4223
g12
Nsg13
(dp4224
sg19
Nsg20
I00
sbsI11
g0
(g8
g2
Ntp4225
Rp4226
(dp4227
g12
Nsg13
(dp4228
sg19
Nsg20
I01
sbsI12
g0
(g8
g2
Ntp4229
Rp4230
(dp4231
g12
Nsg13
(dp4232
sg19
Nsg20
I01
sbsI13
g0
(g8
g2
Ntp4233
Rp4234
(dp4235
g12
Nsg13
(dp4236
sg19
Nsg20
I01
sbsI14
g0
(g8
g2
Ntp4237
Rp4238
(dp4239
g12
Nsg13
(dp4240
sg19
Nsg20
I01
sbssg19
I43
sg20
Nsbag0
(g8
g2
Ntp4241
Rp4242
(dp4243
g12
I01
sg13
(dp4244
I0
g0
(g8
g2
Ntp4245
Rp4246
(dp4247
g12
Nsg13
(dp4248
sg19
Nsg20
I01
sbsI1
g0
(g8
g2
Ntp4249
Rp4250
(dp4251
g12
Nsg13
(dp4252
sg19
Nsg20
I01
sbsI2
g0
(g8
g2
Ntp4253
Rp4254
(dp4255
g12
Nsg13
(dp4256
sg19
Nsg20
I00
sbsI3
g0
(g8
g2
Ntp4257
Rp4258
(dp4259
g12
Nsg13
(dp4260
sg19
Nsg20
I00
sbsI4
g0
(g8
g2
Ntp4261
Rp4262
(dp4263
g12
Nsg13
(dp4264
sg19
Nsg20
I01
sbsI5
g0
(g8
g2
Ntp4265
Rp4266
(dp4267
g12
Nsg13
(dp4268
sg19
Nsg20
I01
sbsI6
g0
(g8
g2
Ntp4269
Rp4270
(dp4271
g12
Nsg13
(dp4272
sg19
Nsg20
I01
sbsI7
g0
(g8
g2
Ntp4273
Rp4274
(dp4275
g12
Nsg13
(dp4276
sg19
Nsg20
I01
sbsI8
g0
(g8
g2
Ntp4277
Rp4278
(dp4279
g12
Nsg13
(dp4280
sg19
Nsg20
I00
sbsI9
g0
(g8
g2
Ntp4281
Rp4282
(dp4283
g12
Nsg13
(dp4284
sg19
Nsg20
I01
sbsI10
g0
(g8
g2
Ntp4285
Rp4286
(dp4287
g12
Nsg13
(dp4288
sg19
Nsg20
I00
sbsI11
g0
(g8
g2
Ntp4289
Rp4290
(dp4291
g12
Nsg13
(dp4292
sg19
Nsg20
I01
sbsI12
g0
(g8
g2
Ntp4293
Rp4294
(dp4295
g12
Nsg13
(dp4296
sg19
Nsg20
I00
sbsI13
g0
(g8
g2
Ntp4297
Rp4298
(dp4299
g12
Nsg13
(dp4300
sg19
Nsg20
I01
sbsI14
g0
(g8
g2
Ntp4301
Rp4302
(dp4303
g12
Nsg13
(dp4304
sg19
Nsg20
I01
sbsI15
g0
(g8
g2
Ntp4305
Rp4306
(dp4307
g12
Nsg13
(dp4308
sg19
Nsg20
I01
sbsI16
g0
(g8
g2
Ntp4309
Rp4310
(dp4311
g12
Nsg13
(dp4312
sg19
Nsg20
I01
sbsI17
g0
(g8
g2
Ntp4313
Rp4314
(dp4315
g12
Nsg13
(dp4316
sg19
Nsg20
I01
sbsI18
g0
(g8
g2
Ntp4317
Rp4318
(dp4319
g12
Nsg13
(dp4320
sg19
Nsg20
I00
sbsI19
g0
(g8
g2
Ntp4321
Rp4322
(dp4323
g12
Nsg13
(dp4324
sg19
Nsg20
I00
sbsI20
g0
(g8
g2
Ntp4325
Rp4326
(dp4327
g12
Nsg13
(dp4328
sg19
Nsg20
I01
sbsI21
g0
(g8
g2
Ntp4329
Rp4330
(dp4331
g12
Nsg13
(dp4332
sg19
Nsg20
I01
sbsI22
g0
(g8
g2
Ntp4333
Rp4334
(dp4335
g12
Nsg13
(dp4336
sg19
Nsg20
I01
sbsI23
g0
(g8
g2
Ntp4337
Rp4338
(dp4339
g12
Nsg13
(dp4340
sg19
Nsg20
I01
sbsI24
g0
(g8
g2
Ntp4341
Rp4342
(dp4343
g12
Nsg13
(dp4344
sg19
Nsg20
I01
sbsI25
g0
(g8
g2
Ntp4345
Rp4346
(dp4347
g12
Nsg13
(dp4348
sg19
Nsg20
I01
sbsI26
g0
(g8
g2
Ntp4349
Rp4350
(dp4351
g12
Nsg13
(dp4352
sg19
Nsg20
I01
sbsI27
g0
(g8
g2
Ntp4353
Rp4354
(dp4355
g12
Nsg13
(dp4356
sg19
Nsg20
I01
sbsI28
g0
(g8
g2
Ntp4357
Rp4358
(dp4359
g12
Nsg13
(dp4360
sg19
Nsg20
I01
sbsI29
g0
(g8
g2
Ntp4361
Rp4362
(dp4363
g12
Nsg13
(dp4364
sg19
Nsg20
I01
sbsI30
g0
(g8
g2
Ntp4365
Rp4366
(dp4367
g12
Nsg13
(dp4368
sg19
Nsg20
I01
sbsI31
g0
(g8
g2
Ntp4369
Rp4370
(dp4371
g12
Nsg13
(dp4372
sg19
Nsg20
I01
sbsI32
g0
(g8
g2
Ntp4373
Rp4374
(dp4375
g12
Nsg13
(dp4376
sg19
Nsg20
I01
sbsI33
g0
(g8
g2
Ntp4377
Rp4378
(dp4379
g12
Nsg13
(dp4380
sg19
Nsg20
I01
sbsI34
g0
(g8
g2
Ntp4381
Rp4382
(dp4383
g12
Nsg13
(dp4384
sg19
Nsg20
I01
sbsI35
g0
(g8
g2
Ntp4385
Rp4386
(dp4387
g12
Nsg13
(dp4388
sg19
Nsg20
I01
sbsI36
g0
(g8
g2
Ntp4389
Rp4390
(dp4391
g12
Nsg13
(dp4392
sg19
Nsg20
I01
sbsI37
g0
(g8
g2
Ntp4393
Rp4394
(dp4395
g12
Nsg13
(dp4396
sg19
Nsg20
I00
sbsI38
g0
(g8
g2
Ntp4397
Rp4398
(dp4399
g12
Nsg13
(dp4400
sg19
Nsg20
I01
sbsI39
g0
(g8
g2
Ntp4401
Rp4402
(dp4403
g12
Nsg13
(dp4404
sg19
Nsg20
I01
sbsI40
g0
(g8
g2
Ntp4405
Rp4406
(dp4407
g12
Nsg13
(dp4408
sg19
Nsg20
I01
sbsI41
g0
(g8
g2
Ntp4409
Rp4410
(dp4411
g12
Nsg13
(dp4412
sg19
Nsg20
I01
sbsI42
g0
(g8
g2
Ntp4413
Rp4414
(dp4415
g12
Nsg13
(dp4416
sg19
Nsg20
I01
sbsI43
g0
(g8
g2
Ntp4417
Rp4418
(dp4419
g12
Nsg13
(dp4420
sg19
Nsg20
I01
sbsI44
g0
(g8
g2
Ntp4421
Rp4422
(dp4423
g12
Nsg13
(dp4424
sg19
Nsg20
I01
sbsI45
g0
(g8
g2
Ntp4425
Rp4426
(dp4427
g12
Nsg13
(dp4428
sg19
Nsg20
I01
sbsI46
g0
(g8
g2
Ntp4429
Rp4430
(dp4431
g12
Nsg13
(dp4432
sg19
Nsg20
I01
sbsI47
g0
(g8
g2
Ntp4433
Rp4434
(dp4435
g12
Nsg13
(dp4436
sg19
Nsg20
I01
sbsI48
g0
(g8
g2
Ntp4437
Rp4438
(dp4439
g12
Nsg13
(dp4440
sg19
Nsg20
I00
sbsI49
g0
(g8
g2
Ntp4441
Rp4442
(dp4443
g12
Nsg13
(dp4444
sg19
Nsg20
I01
sbsI50
g0
(g8
g2
Ntp4445
Rp4446
(dp4447
g12
Nsg13
(dp4448
sg19
Nsg20
I01
sbsI51
g0
(g8
g2
Ntp4449
Rp4450
(dp4451
g12
Nsg13
(dp4452
sg19
Nsg20
I01
sbsI52
g0
(g8
g2
Ntp4453
Rp4454
(dp4455
g12
Nsg13
(dp4456
sg19
Nsg20
I01
sbsI53
g0
(g8
g2
Ntp4457
Rp4458
(dp4459
g12
Nsg13
(dp4460
sg19
Nsg20
I01
sbsI54
g0
(g8
g2
Ntp4461
Rp4462
(dp4463
g12
Nsg13
(dp4464
sg19
Nsg20
I01
sbsI55
g0
(g8
g2
Ntp4465
Rp4466
(dp4467
g12
Nsg13
(dp4468
sg19
Nsg20
I00
sbsI56
g0
(g8
g2
Ntp4469
Rp4470
(dp4471
g12
Nsg13
(dp4472
sg19
Nsg20
I01
sbsI57
g0
(g8
g2
Ntp4473
Rp4474
(dp4475
g12
Nsg13
(dp4476
sg19
Nsg20
I00
sbsI58
g0
(g8
g2
Ntp4477
Rp4478
(dp4479
g12
Nsg13
(dp4480
sg19
Nsg20
I00
sbsI59
g0
(g8
g2
Ntp4481
Rp4482
(dp4483
g12
Nsg13
(dp4484
sg19
Nsg20
I01
sbsI60
g0
(g8
g2
Ntp4485
Rp4486
(dp4487
g12
Nsg13
(dp4488
sg19
Nsg20
I00
sbsI61
g0
(g8
g2
Ntp4489
Rp4490
(dp4491
g12
Nsg13
(dp4492
sg19
Nsg20
I01
sbsI62
g0
(g8
g2
Ntp4493
Rp4494
(dp4495
g12
Nsg13
(dp4496
sg19
Nsg20
I01
sbsI63
g0
(g8
g2
Ntp4497
Rp4498
(dp4499
g12
Nsg13
(dp4500
sg19
Nsg20
I01
sbsI64
g0
(g8
g2
Ntp4501
Rp4502
(dp4503
g12
Nsg13
(dp4504
sg19
Nsg20
I01
sbsI65
g0
(g8
g2
Ntp4505
Rp4506
(dp4507
g12
Nsg13
(dp4508
sg19
Nsg20
I00
sbsI66
g0
(g8
g2
Ntp4509
Rp4510
(dp4511
g12
Nsg13
(dp4512
sg19
Nsg20
I00
sbsI67
g0
(g8
g2
Ntp4513
Rp4514
(dp4515
g12
Nsg13
(dp4516
sg19
Nsg20
I01
sbsI68
g0
(g8
g2
Ntp4517
Rp4518
(dp4519
g12
Nsg13
(dp4520
sg19
Nsg20
I01
sbsI69
g0
(g8
g2
Ntp4521
Rp4522
(dp4523
g12
Nsg13
(dp4524
sg19
Nsg20
I00
sbsI70
g0
(g8
g2
Ntp4525
Rp4526
(dp4527
g12
Nsg13
(dp4528
sg19
Nsg20
I00
sbsI71
g0
(g8
g2
Ntp4529
Rp4530
(dp4531
g12
Nsg13
(dp4532
sg19
Nsg20
I01
sbsI72
g0
(g8
g2
Ntp4533
Rp4534
(dp4535
g12
Nsg13
(dp4536
sg19
Nsg20
I01
sbsI73
g0
(g8
g2
Ntp4537
Rp4538
(dp4539
g12
Nsg13
(dp4540
sg19
Nsg20
I01
sbsI74
g0
(g8
g2
Ntp4541
Rp4542
(dp4543
g12
Nsg13
(dp4544
sg19
Nsg20
I00
sbsI75
g0
(g8
g2
Ntp4545
Rp4546
(dp4547
g12
Nsg13
(dp4548
sg19
Nsg20
I01
sbsI76
g0
(g8
g2
Ntp4549
Rp4550
(dp4551
g12
Nsg13
(dp4552
sg19
Nsg20
I01
sbsI77
g0
(g8
g2
Ntp4553
Rp4554
(dp4555
g12
Nsg13
(dp4556
sg19
Nsg20
I01
sbsI78
g0
(g8
g2
Ntp4557
Rp4558
(dp4559
g12
Nsg13
(dp4560
sg19
Nsg20
I00
sbsI79
g0
(g8
g2
Ntp4561
Rp4562
(dp4563
g12
Nsg13
(dp4564
sg19
Nsg20
I01
sbsI80
g0
(g8
g2
Ntp4565
Rp4566
(dp4567
g12
Nsg13
(dp4568
sg19
Nsg20
I00
sbsI81
g0
(g8
g2
Ntp4569
Rp4570
(dp4571
g12
Nsg13
(dp4572
sg19
Nsg20
I00
sbsI82
g0
(g8
g2
Ntp4573
Rp4574
(dp4575
g12
Nsg13
(dp4576
sg19
Nsg20
I01
sbsI83
g0
(g8
g2
Ntp4577
Rp4578
(dp4579
g12
Nsg13
(dp4580
sg19
Nsg20
I01
sbsI84
g0
(g8
g2
Ntp4581
Rp4582
(dp4583
g12
Nsg13
(dp4584
sg19
Nsg20
I00
sbsI85
g0
(g8
g2
Ntp4585
Rp4586
(dp4587
g12
Nsg13
(dp4588
sg19
Nsg20
I00
sbsI86
g0
(g8
g2
Ntp4589
Rp4590
(dp4591
g12
Nsg13
(dp4592
sg19
Nsg20
I01
sbsI87
g0
(g8
g2
Ntp4593
Rp4594
(dp4595
g12
Nsg13
(dp4596
sg19
Nsg20
I01
sbsI88
g0
(g8
g2
Ntp4597
Rp4598
(dp4599
g12
Nsg13
(dp4600
sg19
Nsg20
I01
sbsI89
g0
(g8
g2
Ntp4601
Rp4602
(dp4603
g12
Nsg13
(dp4604
sg19
Nsg20
I00
sbsI90
g0
(g8
g2
Ntp4605
Rp4606
(dp4607
g12
Nsg13
(dp4608
sg19
Nsg20
I01
sbsI91
g0
(g8
g2
Ntp4609
Rp4610
(dp4611
g12
Nsg13
(dp4612
sg19
Nsg20
I01
sbsI92
g0
(g8
g2
Ntp4613
Rp4614
(dp4615
g12
Nsg13
(dp4616
sg19
Nsg20
I00
sbsI93
g0
(g8
g2
Ntp4617
Rp4618
(dp4619
g12
Nsg13
(dp4620
sg19
Nsg20
I00
sbsI94
g0
(g8
g2
Ntp4621
Rp4622
(dp4623
g12
Nsg13
(dp4624
sg19
Nsg20
I01
sbsI95
g0
(g8
g2
Ntp4625
Rp4626
(dp4627
g12
Nsg13
(dp4628
sg19
Nsg20
I00
sbsI96
g0
(g8
g2
Ntp4629
Rp4630
(dp4631
g12
Nsg13
(dp4632
sg19
Nsg20
I00
sbsI97
g0
(g8
g2
Ntp4633
Rp4634
(dp4635
g12
Nsg13
(dp4636
sg19
Nsg20
I01
sbsI98
g0
(g8
g2
Ntp4637
Rp4638
(dp4639
g12
Nsg13
(dp4640
sg19
Nsg20
I01
sbsI99
g0
(g8
g2
Ntp4641
Rp4642
(dp4643
g12
Nsg13
(dp4644
sg19
Nsg20
I01
sbsI100
g0
(g8
g2
Ntp4645
Rp4646
(dp4647
g12
Nsg13
(dp4648
sg19
Nsg20
I00
sbsI101
g0
(g8
g2
Ntp4649
Rp4650
(dp4651
g12
Nsg13
(dp4652
sg19
Nsg20
I01
sbsI102
g0
(g8
g2
Ntp4653
Rp4654
(dp4655
g12
Nsg13
(dp4656
sg19
Nsg20
I00
sbsI103
g0
(g8
g2
Ntp4657
Rp4658
(dp4659
g12
Nsg13
(dp4660
sg19
Nsg20
I00
sbsI104
g0
(g8
g2
Ntp4661
Rp4662
(dp4663
g12
Nsg13
(dp4664
sg19
Nsg20
I01
sbsI105
g0
(g8
g2
Ntp4665
Rp4666
(dp4667
g12
Nsg13
(dp4668
sg19
Nsg20
I01
sbsI106
g0
(g8
g2
Ntp4669
Rp4670
(dp4671
g12
Nsg13
(dp4672
sg19
Nsg20
I01
sbsI107
g0
(g8
g2
Ntp4673
Rp4674
(dp4675
g12
Nsg13
(dp4676
sg19
Nsg20
I00
sbsI108
g0
(g8
g2
Ntp4677
Rp4678
(dp4679
g12
Nsg13
(dp4680
sg19
Nsg20
I01
sbsI109
g0
(g8
g2
Ntp4681
Rp4682
(dp4683
g12
Nsg13
(dp4684
sg19
Nsg20
I01
sbsI110
g0
(g8
g2
Ntp4685
Rp4686
(dp4687
g12
Nsg13
(dp4688
sg19
Nsg20
I01
sbsI111
g0
(g8
g2
Ntp4689
Rp4690
(dp4691
g12
Nsg13
(dp4692
sg19
Nsg20
I01
sbsI112
g0
(g8
g2
Ntp4693
Rp4694
(dp4695
g12
Nsg13
(dp4696
sg19
Nsg20
I01
sbsI113
g0
(g8
g2
Ntp4697
Rp4698
(dp4699
g12
Nsg13
(dp4700
sg19
Nsg20
I00
sbsI114
g0
(g8
g2
Ntp4701
Rp4702
(dp4703
g12
Nsg13
(dp4704
sg19
Nsg20
I01
sbsI115
g0
(g8
g2
Ntp4705
Rp4706
(dp4707
g12
Nsg13
(dp4708
sg19
Nsg20
I00
sbsI116
g0
(g8
g2
Ntp4709
Rp4710
(dp4711
g12
Nsg13
(dp4712
sg19
Nsg20
I00
sbsI117
g0
(g8
g2
Ntp4713
Rp4714
(dp4715
g12
Nsg13
(dp4716
sg19
Nsg20
I01
sbsI118
g0
(g8
g2
Ntp4717
Rp4718
(dp4719
g12
Nsg13
(dp4720
sg19
Nsg20
I00
sbsI119
g0
(g8
g2
Ntp4721
Rp4722
(dp4723
g12
Nsg13
(dp4724
sg19
Nsg20
I01
sbsI120
g0
(g8
g2
Ntp4725
Rp4726
(dp4727
g12
Nsg13
(dp4728
sg19
Nsg20
I01
sbsI121
g0
(g8
g2
Ntp4729
Rp4730
(dp4731
g12
Nsg13
(dp4732
sg19
Nsg20
I00
sbsI122
g0
(g8
g2
Ntp4733
Rp4734
(dp4735
g12
Nsg13
(dp4736
sg19
Nsg20
I01
sbsI123
g0
(g8
g2
Ntp4737
Rp4738
(dp4739
g12
Nsg13
(dp4740
sg19
Nsg20
I00
sbsI124
g0
(g8
g2
Ntp4741
Rp4742
(dp4743
g12
Nsg13
(dp4744
sg19
Nsg20
I00
sbsI125
g0
(g8
g2
Ntp4745
Rp4746
(dp4747
g12
Nsg13
(dp4748
sg19
Nsg20
I00
sbsI126
g0
(g8
g2
Ntp4749
Rp4750
(dp4751
g12
Nsg13
(dp4752
sg19
Nsg20
I00
sbsI127
g0
(g8
g2
Ntp4753
Rp4754
(dp4755
g12
Nsg13
(dp4756
sg19
Nsg20
I00
sbsI128
g0
(g8
g2
Ntp4757
Rp4758
(dp4759
g12
Nsg13
(dp4760
sg19
Nsg20
I00
sbsI129
g0
(g8
g2
Ntp4761
Rp4762
(dp4763
g12
Nsg13
(dp4764
sg19
Nsg20
I01
sbsI130
g0
(g8
g2
Ntp4765
Rp4766
(dp4767
g12
Nsg13
(dp4768
sg19
Nsg20
I01
sbsI131
g0
(g8
g2
Ntp4769
Rp4770
(dp4771
g12
Nsg13
(dp4772
sg19
Nsg20
I01
sbsI132
g0
(g8
g2
Ntp4773
Rp4774
(dp4775
g12
Nsg13
(dp4776
sg19
Nsg20
I00
sbsI133
g0
(g8
g2
Ntp4777
Rp4778
(dp4779
g12
Nsg13
(dp4780
sg19
Nsg20
I00
sbsI134
g0
(g8
g2
Ntp4781
Rp4782
(dp4783
g12
Nsg13
(dp4784
sg19
Nsg20
I00
sbsI135
g0
(g8
g2
Ntp4785
Rp4786
(dp4787
g12
Nsg13
(dp4788
sg19
Nsg20
I00
sbsI136
g0
(g8
g2
Ntp4789
Rp4790
(dp4791
g12
Nsg13
(dp4792
sg19
Nsg20
I00
sbsI137
g0
(g8
g2
Ntp4793
Rp4794
(dp4795
g12
Nsg13
(dp4796
sg19
Nsg20
I00
sbsI138
g0
(g8
g2
Ntp4797
Rp4798
(dp4799
g12
Nsg13
(dp4800
sg19
Nsg20
I00
sbsI139
g0
(g8
g2
Ntp4801
Rp4802
(dp4803
g12
Nsg13
(dp4804
sg19
Nsg20
I00
sbsI140
g0
(g8
g2
Ntp4805
Rp4806
(dp4807
g12
Nsg13
(dp4808
sg19
Nsg20
I00
sbsI141
g0
(g8
g2
Ntp4809
Rp4810
(dp4811
g12
Nsg13
(dp4812
sg19
Nsg20
I01
sbsI142
g0
(g8
g2
Ntp4813
Rp4814
(dp4815
g12
Nsg13
(dp4816
sg19
Nsg20
I01
sbsI144
g0
(g8
g2
Ntp4817
Rp4818
(dp4819
g12
Nsg13
(dp4820
sg19
Nsg20
I00
sbsI145
g0
(g8
g2
Ntp4821
Rp4822
(dp4823
g12
Nsg13
(dp4824
sg19
Nsg20
I01
sbsI146
g0
(g8
g2
Ntp4825
Rp4826
(dp4827
g12
Nsg13
(dp4828
sg19
Nsg20
I00
sbsI147
g0
(g8
g2
Ntp4829
Rp4830
(dp4831
g12
Nsg13
(dp4832
sg19
Nsg20
I00
sbsI148
g0
(g8
g2
Ntp4833
Rp4834
(dp4835
g12
Nsg13
(dp4836
sg19
Nsg20
I00
sbsI149
g0
(g8
g2
Ntp4837
Rp4838
(dp4839
g12
Nsg13
(dp4840
sg19
Nsg20
I00
sbsI150
g0
(g8
g2
Ntp4841
Rp4842
(dp4843
g12
Nsg13
(dp4844
sg19
Nsg20
I00
sbsI151
g0
(g8
g2
Ntp4845
Rp4846
(dp4847
g12
Nsg13
(dp4848
sg19
Nsg20
I00
sbsI152
g0
(g8
g2
Ntp4849
Rp4850
(dp4851
g12
Nsg13
(dp4852
sg19
Nsg20
I00
sbsI153
g0
(g8
g2
Ntp4853
Rp4854
(dp4855
g12
Nsg13
(dp4856
sg19
Nsg20
I00
sbsI154
g0
(g8
g2
Ntp4857
Rp4858
(dp4859
g12
Nsg13
(dp4860
sg19
Nsg20
I01
sbsI157
g0
(g8
g2
Ntp4861
Rp4862
(dp4863
g12
Nsg13
(dp4864
sg19
Nsg20
I00
sbsI160
g0
(g8
g2
Ntp4865
Rp4866
(dp4867
g12
Nsg13
(dp4868
sg19
Nsg20
I00
sbsI161
g0
(g8
g2
Ntp4869
Rp4870
(dp4871
g12
Nsg13
(dp4872
sg19
Nsg20
I00
sbsI162
g0
(g8
g2
Ntp4873
Rp4874
(dp4875
g12
Nsg13
(dp4876
sg19
Nsg20
I00
sbsI168
g0
(g8
g2
Ntp4877
Rp4878
(dp4879
g12
Nsg13
(dp4880
sg19
Nsg20
I00
sbsI169
g0
(g8
g2
Ntp4881
Rp4882
(dp4883
g12
Nsg13
(dp4884
sg19
Nsg20
I01
sbsI170
g0
(g8
g2
Ntp4885
Rp4886
(dp4887
g12
Nsg13
(dp4888
sg19
Nsg20
I01
sbsI172
g0
(g8
g2
Ntp4889
Rp4890
(dp4891
g12
Nsg13
(dp4892
sg19
Nsg20
I00
sbsI184
g0
(g8
g2
Ntp4893
Rp4894
(dp4895
g12
Nsg13
(dp4896
sg19
Nsg20
I00
sbsI189
g0
(g8
g2
Ntp4897
Rp4898
(dp4899
g12
Nsg13
(dp4900
sg19
Nsg20
I00
sbssg19
I36
sg20
Nsbag0
(g8
g2
Ntp4901
Rp4902
(dp4903
g12
I01
sg13
(dp4904
I0
g0
(g8
g2
Ntp4905
Rp4906
(dp4907
g12
Nsg13
(dp4908
sg19
Nsg20
I00
sbsI1
g0
(g8
g2
Ntp4909
Rp4910
(dp4911
g12
Nsg13
(dp4912
sg19
Nsg20
I01
sbsI2
g0
(g8
g2
Ntp4913
Rp4914
(dp4915
g12
Nsg13
(dp4916
sg19
Nsg20
I00
sbsI3
g0
(g8
g2
Ntp4917
Rp4918
(dp4919
g12
Nsg13
(dp4920
sg19
Nsg20
I00
sbsI4
g0
(g8
g2
Ntp4921
Rp4922
(dp4923
g12
Nsg13
(dp4924
sg19
Nsg20
I01
sbsI5
g0
(g8
g2
Ntp4925
Rp4926
(dp4927
g12
Nsg13
(dp4928
sg19
Nsg20
I01
sbsI6
g0
(g8
g2
Ntp4929
Rp4930
(dp4931
g12
Nsg13
(dp4932
sg19
Nsg20
I01
sbsI7
g0
(g8
g2
Ntp4933
Rp4934
(dp4935
g12
Nsg13
(dp4936
sg19
Nsg20
I01
sbsI8
g0
(g8
g2
Ntp4937
Rp4938
(dp4939
g12
Nsg13
(dp4940
sg19
Nsg20
I01
sbsI9
g0
(g8
g2
Ntp4941
Rp4942
(dp4943
g12
Nsg13
(dp4944
sg19
Nsg20
I01
sbsI10
g0
(g8
g2
Ntp4945
Rp4946
(dp4947
g12
Nsg13
(dp4948
sg19
Nsg20
I00
sbsI11
g0
(g8
g2
Ntp4949
Rp4950
(dp4951
g12
Nsg13
(dp4952
sg19
Nsg20
I01
sbsI12
g0
(g8
g2
Ntp4953
Rp4954
(dp4955
g12
Nsg13
(dp4956
sg19
Nsg20
I01
sbsI13
g0
(g8
g2
Ntp4957
Rp4958
(dp4959
g12
Nsg13
(dp4960
sg19
Nsg20
I01
sbsI14
g0
(g8
g2
Ntp4961
Rp4962
(dp4963
g12
Nsg13
(dp4964
sg19
Nsg20
I01
sbssg19
I43
sg20
Nsbag0
(g8
g2
Ntp4965
Rp4966
(dp4967
g12
I01
sg13
(dp4968
I0
g0
(g8
g2
Ntp4969
Rp4970
(dp4971
g12
Nsg13
(dp4972
sg19
Nsg20
I01
sbsI1
g0
(g8
g2
Ntp4973
Rp4974
(dp4975
g12
Nsg13
(dp4976
sg19
Nsg20
I00
sbssg19
I4
sg20
Nsbag0
(g8
g2
Ntp4977
Rp4978
(dp4979
g12
I00
sg13
(dp4980
I0
g0
(g8
g2
Ntp4981
Rp4982
(dp4983
g12
Nsg13
(dp4984
sg19
Nsg20
I01
sbsI1
g0
(g8
g2
Ntp4985
Rp4986
(dp4987
g12
Nsg13
(dp4988
sg19
Nsg20
I00
sbssg19
I23
sg20
Nsbag0
(g8
g2
Ntp4989
Rp4990
(dp4991
g12
I00
sg13
(dp4992
I0
g0
(g8
g2
Ntp4993
Rp4994
(dp4995
g12
Nsg13
(dp4996
sg19
Nsg20
I01
sbsI1
g0
(g8
g2
Ntp4997
Rp4998
(dp4999
g12
Nsg13
(dp5000
sg19
Nsg20
I01
sbsI2
g0
(g8
g2
Ntp5001
Rp5002
(dp5003
g12
Nsg13
(dp5004
sg19
Nsg20
I00
sbsI3
g0
(g8
g2
Ntp5005
Rp5006
(dp5007
g12
Nsg13
(dp5008
sg19
Nsg20
I01
sbsI4
g0
(g8
g2
Ntp5009
Rp5010
(dp5011
g12
Nsg13
(dp5012
sg19
Nsg20
I00
sbsI5
g0
(g8
g2
Ntp5013
Rp5014
(dp5015
g12
Nsg13
(dp5016
sg19
Nsg20
I00
sbsI6
g0
(g8
g2
Ntp5017
Rp5018
(dp5019
g12
Nsg13
(dp5020
sg19
Nsg20
I00
sbsI7
g0
(g8
g2
Ntp5021
Rp5022
(dp5023
g12
Nsg13
(dp5024
sg19
Nsg20
I00
sbsI8
g0
(g8
g2
Ntp5025
Rp5026
(dp5027
g12
Nsg13
(dp5028
sg19
Nsg20
I00
sbsI9
g0
(g8
g2
Ntp5029
Rp5030
(dp5031
g12
Nsg13
(dp5032
sg19
Nsg20
I00
sbsI10
g0
(g8
g2
Ntp5033
Rp5034
(dp5035
g12
Nsg13
(dp5036
sg19
Nsg20
I01
sbsI11
g0
(g8
g2
Ntp5037
Rp5038
(dp5039
g12
Nsg13
(dp5040
sg19
Nsg20
I00
sbsI12
g0
(g8
g2
Ntp5041
Rp5042
(dp5043
g12
Nsg13
(dp5044
sg19
Nsg20
I00
sbsI13
g0
(g8
g2
Ntp5045
Rp5046
(dp5047
g12
Nsg13
(dp5048
sg19
Nsg20
I00
sbsI14
g0
(g8
g2
Ntp5049
Rp5050
(dp5051
g12
Nsg13
(dp5052
sg19
Nsg20
I00
sbsI15
g0
(g8
g2
Ntp5053
Rp5054
(dp5055
g12
Nsg13
(dp5056
sg19
Nsg20
I00
sbsI16
g0
(g8
g2
Ntp5057
Rp5058
(dp5059
g12
Nsg13
(dp5060
sg19
Nsg20
I00
sbsI17
g0
(g8
g2
Ntp5061
Rp5062
(dp5063
g12
Nsg13
(dp5064
sg19
Nsg20
I00
sbsI18
g0
(g8
g2
Ntp5065
Rp5066
(dp5067
g12
Nsg13
(dp5068
sg19
Nsg20
I00
sbsI19
g0
(g8
g2
Ntp5069
Rp5070
(dp5071
g12
Nsg13
(dp5072
sg19
Nsg20
I01
sbsI20
g0
(g8
g2
Ntp5073
Rp5074
(dp5075
g12
Nsg13
(dp5076
sg19
Nsg20
I00
sbsI21
g0
(g8
g2
Ntp5077
Rp5078
(dp5079
g12
Nsg13
(dp5080
sg19
Nsg20
I00
sbsI22
g0
(g8
g2
Ntp5081
Rp5082
(dp5083
g12
Nsg13
(dp5084
sg19
Nsg20
I00
sbsI23
g0
(g8
g2
Ntp5085
Rp5086
(dp5087
g12
Nsg13
(dp5088
sg19
Nsg20
I00
sbsI24
g0
(g8
g2
Ntp5089
Rp5090
(dp5091
g12
Nsg13
(dp5092
sg19
Nsg20
I00
sbsI25
g0
(g8
g2
Ntp5093
Rp5094
(dp5095
g12
Nsg13
(dp5096
sg19
Nsg20
I00
sbsI26
g0
(g8
g2
Ntp5097
Rp5098
(dp5099
g12
Nsg13
(dp5100
sg19
Nsg20
I00
sbsI27
g0
(g8
g2
Ntp5101
Rp5102
(dp5103
g12
Nsg13
(dp5104
sg19
Nsg20
I01
sbsI28
g0
(g8
g2
Ntp5105
Rp5106
(dp5107
g12
Nsg13
(dp5108
sg19
Nsg20
I00
sbsI29
g0
(g8
g2
Ntp5109
Rp5110
(dp5111
g12
Nsg13
(dp5112
sg19
Nsg20
I00
sbsI30
g0
(g8
g2
Ntp5113
Rp5114
(dp5115
g12
Nsg13
(dp5116
sg19
Nsg20
I00
sbsI31
g0
(g8
g2
Ntp5117
Rp5118
(dp5119
g12
Nsg13
(dp5120
sg19
Nsg20
I00
sbsI32
g0
(g8
g2
Ntp5121
Rp5122
(dp5123
g12
Nsg13
(dp5124
sg19
Nsg20
I00
sbsI33
g0
(g8
g2
Ntp5125
Rp5126
(dp5127
g12
Nsg13
(dp5128
sg19
Nsg20
I00
sbsI34
g0
(g8
g2
Ntp5129
Rp5130
(dp5131
g12
Nsg13
(dp5132
sg19
Nsg20
I00
sbsI35
g0
(g8
g2
Ntp5133
Rp5134
(dp5135
g12
Nsg13
(dp5136
sg19
Nsg20
I00
sbsI36
g0
(g8
g2
Ntp5137
Rp5138
(dp5139
g12
Nsg13
(dp5140
sg19
Nsg20
I00
sbsI37
g0
(g8
g2
Ntp5141
Rp5142
(dp5143
g12
Nsg13
(dp5144
sg19
Nsg20
I00
sbsI38
g0
(g8
g2
Ntp5145
Rp5146
(dp5147
g12
Nsg13
(dp5148
sg19
Nsg20
I00
sbsI39
g0
(g8
g2
Ntp5149
Rp5150
(dp5151
g12
Nsg13
(dp5152
sg19
Nsg20
I00
sbsI40
g0
(g8
g2
Ntp5153
Rp5154
(dp5155
g12
Nsg13
(dp5156
sg19
Nsg20
I00
sbsI41
g0
(g8
g2
Ntp5157
Rp5158
(dp5159
g12
Nsg13
(dp5160
sg19
Nsg20
I00
sbsI42
g0
(g8
g2
Ntp5161
Rp5162
(dp5163
g12
Nsg13
(dp5164
sg19
Nsg20
I00
sbsI43
g0
(g8
g2
Ntp5165
Rp5166
(dp5167
g12
Nsg13
(dp5168
sg19
Nsg20
I01
sbsI44
g0
(g8
g2
Ntp5169
Rp5170
(dp5171
g12
Nsg13
(dp5172
sg19
Nsg20
I00
sbsI45
g0
(g8
g2
Ntp5173
Rp5174
(dp5175
g12
Nsg13
(dp5176
sg19
Nsg20
I00
sbsI46
g0
(g8
g2
Ntp5177
Rp5178
(dp5179
g12
Nsg13
(dp5180
sg19
Nsg20
I00
sbsI47
g0
(g8
g2
Ntp5181
Rp5182
(dp5183
g12
Nsg13
(dp5184
sg19
Nsg20
I00
sbsI48
g0
(g8
g2
Ntp5185
Rp5186
(dp5187
g12
Nsg13
(dp5188
sg19
Nsg20
I01
sbsI49
g0
(g8
g2
Ntp5189
Rp5190
(dp5191
g12
Nsg13
(dp5192
sg19
Nsg20
I01
sbsI50
g0
(g8
g2
Ntp5193
Rp5194
(dp5195
g12
Nsg13
(dp5196
sg19
Nsg20
I00
sbsI51
g0
(g8
g2
Ntp5197
Rp5198
(dp5199
g12
Nsg13
(dp5200
sg19
Nsg20
I00
sbsI52
g0
(g8
g2
Ntp5201
Rp5202
(dp5203
g12
Nsg13
(dp5204
sg19
Nsg20
I00
sbsI53
g0
(g8
g2
Ntp5205
Rp5206
(dp5207
g12
Nsg13
(dp5208
sg19
Nsg20
I01
sbsI54
g0
(g8
g2
Ntp5209
Rp5210
(dp5211
g12
Nsg13
(dp5212
sg19
Nsg20
I00
sbsI55
g0
(g8
g2
Ntp5213
Rp5214
(dp5215
g12
Nsg13
(dp5216
sg19
Nsg20
I01
sbsI56
g0
(g8
g2
Ntp5217
Rp5218
(dp5219
g12
Nsg13
(dp5220
sg19
Nsg20
I00
sbsI57
g0
(g8
g2
Ntp5221
Rp5222
(dp5223
g12
Nsg13
(dp5224
sg19
Nsg20
I01
sbsI58
g0
(g8
g2
Ntp5225
Rp5226
(dp5227
g12
Nsg13
(dp5228
sg19
Nsg20
I00
sbsI59
g0
(g8
g2
Ntp5229
Rp5230
(dp5231
g12
Nsg13
(dp5232
sg19
Nsg20
I01
sbsI60
g0
(g8
g2
Ntp5233
Rp5234
(dp5235
g12
Nsg13
(dp5236
sg19
Nsg20
I01
sbsI61
g0
(g8
g2
Ntp5237
Rp5238
(dp5239
g12
Nsg13
(dp5240
sg19
Nsg20
I00
sbsI62
g0
(g8
g2
Ntp5241
Rp5242
(dp5243
g12
Nsg13
(dp5244
sg19
Nsg20
I00
sbsI63
g0
(g8
g2
Ntp5245
Rp5246
(dp5247
g12
Nsg13
(dp5248
sg19
Nsg20
I00
sbsI64
g0
(g8
g2
Ntp5249
Rp5250
(dp5251
g12
Nsg13
(dp5252
sg19
Nsg20
I00
sbsI65
g0
(g8
g2
Ntp5253
Rp5254
(dp5255
g12
Nsg13
(dp5256
sg19
Nsg20
I00
sbsI66
g0
(g8
g2
Ntp5257
Rp5258
(dp5259
g12
Nsg13
(dp5260
sg19
Nsg20
I00
sbsI67
g0
(g8
g2
Ntp5261
Rp5262
(dp5263
g12
Nsg13
(dp5264
sg19
Nsg20
I00
sbsI68
g0
(g8
g2
Ntp5265
Rp5266
(dp5267
g12
Nsg13
(dp5268
sg19
Nsg20
I00
sbsI69
g0
(g8
g2
Ntp5269
Rp5270
(dp5271
g12
Nsg13
(dp5272
sg19
Nsg20
I01
sbsI70
g0
(g8
g2
Ntp5273
Rp5274
(dp5275
g12
Nsg13
(dp5276
sg19
Nsg20
I00
sbsI71
g0
(g8
g2
Ntp5277
Rp5278
(dp5279
g12
Nsg13
(dp5280
sg19
Nsg20
I00
sbsI72
g0
(g8
g2
Ntp5281
Rp5282
(dp5283
g12
Nsg13
(dp5284
sg19
Nsg20
I01
sbsI73
g0
(g8
g2
Ntp5285
Rp5286
(dp5287
g12
Nsg13
(dp5288
sg19
Nsg20
I01
sbsI74
g0
(g8
g2
Ntp5289
Rp5290
(dp5291
g12
Nsg13
(dp5292
sg19
Nsg20
I01
sbsI75
g0
(g8
g2
Ntp5293
Rp5294
(dp5295
g12
Nsg13
(dp5296
sg19
Nsg20
I00
sbsI76
g0
(g8
g2
Ntp5297
Rp5298
(dp5299
g12
Nsg13
(dp5300
sg19
Nsg20
I00
sbsI77
g0
(g8
g2
Ntp5301
Rp5302
(dp5303
g12
Nsg13
(dp5304
sg19
Nsg20
I00
sbsI78
g0
(g8
g2
Ntp5305
Rp5306
(dp5307
g12
Nsg13
(dp5308
sg19
Nsg20
I01
sbsI79
g0
(g8
g2
Ntp5309
Rp5310
(dp5311
g12
Nsg13
(dp5312
sg19
Nsg20
I00
sbsI80
g0
(g8
g2
Ntp5313
Rp5314
(dp5315
g12
Nsg13
(dp5316
sg19
Nsg20
I00
sbsI81
g0
(g8
g2
Ntp5317
Rp5318
(dp5319
g12
Nsg13
(dp5320
sg19
Nsg20
I00
sbsI82
g0
(g8
g2
Ntp5321
Rp5322
(dp5323
g12
Nsg13
(dp5324
sg19
Nsg20
I00
sbsI83
g0
(g8
g2
Ntp5325
Rp5326
(dp5327
g12
Nsg13
(dp5328
sg19
Nsg20
I00
sbsI84
g0
(g8
g2
Ntp5329
Rp5330
(dp5331
g12
Nsg13
(dp5332
sg19
Nsg20
I00
sbsI85
g0
(g8
g2
Ntp5333
Rp5334
(dp5335
g12
Nsg13
(dp5336
sg19
Nsg20
I00
sbsI86
g0
(g8
g2
Ntp5337
Rp5338
(dp5339
g12
Nsg13
(dp5340
sg19
Nsg20
I01
sbsI87
g0
(g8
g2
Ntp5341
Rp5342
(dp5343
g12
Nsg13
(dp5344
sg19
Nsg20
I00
sbsI88
g0
(g8
g2
Ntp5345
Rp5346
(dp5347
g12
Nsg13
(dp5348
sg19
Nsg20
I00
sbsI89
g0
(g8
g2
Ntp5349
Rp5350
(dp5351
g12
Nsg13
(dp5352
sg19
Nsg20
I01
sbsI90
g0
(g8
g2
Ntp5353
Rp5354
(dp5355
g12
Nsg13
(dp5356
sg19
Nsg20
I01
sbsI91
g0
(g8
g2
Ntp5357
Rp5358
(dp5359
g12
Nsg13
(dp5360
sg19
Nsg20
I00
sbsI92
g0
(g8
g2
Ntp5361
Rp5362
(dp5363
g12
Nsg13
(dp5364
sg19
Nsg20
I00
sbsI93
g0
(g8
g2
Ntp5365
Rp5366
(dp5367
g12
Nsg13
(dp5368
sg19
Nsg20
I00
sbsI94
g0
(g8
g2
Ntp5369
Rp5370
(dp5371
g12
Nsg13
(dp5372
sg19
Nsg20
I01
sbsI95
g0
(g8
g2
Ntp5373
Rp5374
(dp5375
g12
Nsg13
(dp5376
sg19
Nsg20
I01
sbsI96
g0
(g8
g2
Ntp5377
Rp5378
(dp5379
g12
Nsg13
(dp5380
sg19
Nsg20
I00
sbsI97
g0
(g8
g2
Ntp5381
Rp5382
(dp5383
g12
Nsg13
(dp5384
sg19
Nsg20
I00
sbsI98
g0
(g8
g2
Ntp5385
Rp5386
(dp5387
g12
Nsg13
(dp5388
sg19
Nsg20
I00
sbsI99
g0
(g8
g2
Ntp5389
Rp5390
(dp5391
g12
Nsg13
(dp5392
sg19
Nsg20
I01
sbsI100
g0
(g8
g2
Ntp5393
Rp5394
(dp5395
g12
Nsg13
(dp5396
sg19
Nsg20
I00
sbsI101
g0
(g8
g2
Ntp5397
Rp5398
(dp5399
g12
Nsg13
(dp5400
sg19
Nsg20
I01
sbsI102
g0
(g8
g2
Ntp5401
Rp5402
(dp5403
g12
Nsg13
(dp5404
sg19
Nsg20
I00
sbsI103
g0
(g8
g2
Ntp5405
Rp5406
(dp5407
g12
Nsg13
(dp5408
sg19
Nsg20
I00
sbsI104
g0
(g8
g2
Ntp5409
Rp5410
(dp5411
g12
Nsg13
(dp5412
sg19
Nsg20
I01
sbsI105
g0
(g8
g2
Ntp5413
Rp5414
(dp5415
g12
Nsg13
(dp5416
sg19
Nsg20
I01
sbsI106
g0
(g8
g2
Ntp5417
Rp5418
(dp5419
g12
Nsg13
(dp5420
sg19
Nsg20
I01
sbsI107
g0
(g8
g2
Ntp5421
Rp5422
(dp5423
g12
Nsg13
(dp5424
sg19
Nsg20
I00
sbsI108
g0
(g8
g2
Ntp5425
Rp5426
(dp5427
g12
Nsg13
(dp5428
sg19
Nsg20
I00
sbsI109
g0
(g8
g2
Ntp5429
Rp5430
(dp5431
g12
Nsg13
(dp5432
sg19
Nsg20
I01
sbsI110
g0
(g8
g2
Ntp5433
Rp5434
(dp5435
g12
Nsg13
(dp5436
sg19
Nsg20
I00
sbsI111
g0
(g8
g2
Ntp5437
Rp5438
(dp5439
g12
Nsg13
(dp5440
sg19
Nsg20
I00
sbsI112
g0
(g8
g2
Ntp5441
Rp5442
(dp5443
g12
Nsg13
(dp5444
sg19
Nsg20
I00
sbsI113
g0
(g8
g2
Ntp5445
Rp5446
(dp5447
g12
Nsg13
(dp5448
sg19
Nsg20
I00
sbsI114
g0
(g8
g2
Ntp5449
Rp5450
(dp5451
g12
Nsg13
(dp5452
sg19
Nsg20
I00
sbsI115
g0
(g8
g2
Ntp5453
Rp5454
(dp5455
g12
Nsg13
(dp5456
sg19
Nsg20
I00
sbsI116
g0
(g8
g2
Ntp5457
Rp5458
(dp5459
g12
Nsg13
(dp5460
sg19
Nsg20
I00
sbsI117
g0
(g8
g2
Ntp5461
Rp5462
(dp5463
g12
Nsg13
(dp5464
sg19
Nsg20
I01
sbsI118
g0
(g8
g2
Ntp5465
Rp5466
(dp5467
g12
Nsg13
(dp5468
sg19
Nsg20
I00
sbsI119
g0
(g8
g2
Ntp5469
Rp5470
(dp5471
g12
Nsg13
(dp5472
sg19
Nsg20
I01
sbsI120
g0
(g8
g2
Ntp5473
Rp5474
(dp5475
g12
Nsg13
(dp5476
sg19
Nsg20
I00
sbsI121
g0
(g8
g2
Ntp5477
Rp5478
(dp5479
g12
Nsg13
(dp5480
sg19
Nsg20
I00
sbsI122
g0
(g8
g2
Ntp5481
Rp5482
(dp5483
g12
Nsg13
(dp5484
sg19
Nsg20
I01
sbsI123
g0
(g8
g2
Ntp5485
Rp5486
(dp5487
g12
Nsg13
(dp5488
sg19
Nsg20
I00
sbsI124
g0
(g8
g2
Ntp5489
Rp5490
(dp5491
g12
Nsg13
(dp5492
sg19
Nsg20
I00
sbsI125
g0
(g8
g2
Ntp5493
Rp5494
(dp5495
g12
Nsg13
(dp5496
sg19
Nsg20
I00
sbsI126
g0
(g8
g2
Ntp5497
Rp5498
(dp5499
g12
Nsg13
(dp5500
sg19
Nsg20
I00
sbsI127
g0
(g8
g2
Ntp5501
Rp5502
(dp5503
g12
Nsg13
(dp5504
sg19
Nsg20
I00
sbsI128
g0
(g8
g2
Ntp5505
Rp5506
(dp5507
g12
Nsg13
(dp5508
sg19
Nsg20
I00
sbsI129
g0
(g8
g2
Ntp5509
Rp5510
(dp5511
g12
Nsg13
(dp5512
sg19
Nsg20
I00
sbsI130
g0
(g8
g2
Ntp5513
Rp5514
(dp5515
g12
Nsg13
(dp5516
sg19
Nsg20
I00
sbsI131
g0
(g8
g2
Ntp5517
Rp5518
(dp5519
g12
Nsg13
(dp5520
sg19
Nsg20
I00
sbsI132
g0
(g8
g2
Ntp5521
Rp5522
(dp5523
g12
Nsg13
(dp5524
sg19
Nsg20
I00
sbsI133
g0
(g8
g2
Ntp5525
Rp5526
(dp5527
g12
Nsg13
(dp5528
sg19
Nsg20
I00
sbsI134
g0
(g8
g2
Ntp5529
Rp5530
(dp5531
g12
Nsg13
(dp5532
sg19
Nsg20
I00
sbsI135
g0
(g8
g2
Ntp5533
Rp5534
(dp5535
g12
Nsg13
(dp5536
sg19
Nsg20
I00
sbsI136
g0
(g8
g2
Ntp5537
Rp5538
(dp5539
g12
Nsg13
(dp5540
sg19
Nsg20
I00
sbsI137
g0
(g8
g2
Ntp5541
Rp5542
(dp5543
g12
Nsg13
(dp5544
sg19
Nsg20
I00
sbsI138
g0
(g8
g2
Ntp5545
Rp5546
(dp5547
g12
Nsg13
(dp5548
sg19
Nsg20
I00
sbsI139
g0
(g8
g2
Ntp5549
Rp5550
(dp5551
g12
Nsg13
(dp5552
sg19
Nsg20
I00
sbsI140
g0
(g8
g2
Ntp5553
Rp5554
(dp5555
g12
Nsg13
(dp5556
sg19
Nsg20
I00
sbsI141
g0
(g8
g2
Ntp5557
Rp5558
(dp5559
g12
Nsg13
(dp5560
sg19
Nsg20
I00
sbsI142
g0
(g8
g2
Ntp5561
Rp5562
(dp5563
g12
Nsg13
(dp5564
sg19
Nsg20
I01
sbsI144
g0
(g8
g2
Ntp5565
Rp5566
(dp5567
g12
Nsg13
(dp5568
sg19
Nsg20
I00
sbsI145
g0
(g8
g2
Ntp5569
Rp5570
(dp5571
g12
Nsg13
(dp5572
sg19
Nsg20
I00
sbsI146
g0
(g8
g2
Ntp5573
Rp5574
(dp5575
g12
Nsg13
(dp5576
sg19
Nsg20
I00
sbsI147
g0
(g8
g2
Ntp5577
Rp5578
(dp5579
g12
Nsg13
(dp5580
sg19
Nsg20
I00
sbsI148
g0
(g8
g2
Ntp5581
Rp5582
(dp5583
g12
Nsg13
(dp5584
sg19
Nsg20
I00
sbsI149
g0
(g8
g2
Ntp5585
Rp5586
(dp5587
g12
Nsg13
(dp5588
sg19
Nsg20
I00
sbsI150
g0
(g8
g2
Ntp5589
Rp5590
(dp5591
g12
Nsg13
(dp5592
sg19
Nsg20
I00
sbsI151
g0
(g8
g2
Ntp5593
Rp5594
(dp5595
g12
Nsg13
(dp5596
sg19
Nsg20
I00
sbsI152
g0
(g8
g2
Ntp5597
Rp5598
(dp5599
g12
Nsg13
(dp5600
sg19
Nsg20
I00
sbsI153
g0
(g8
g2
Ntp5601
Rp5602
(dp5603
g12
Nsg13
(dp5604
sg19
Nsg20
I00
sbsI154
g0
(g8
g2
Ntp5605
Rp5606
(dp5607
g12
Nsg13
(dp5608
sg19
Nsg20
I01
sbsI157
g0
(g8
g2
Ntp5609
Rp5610
(dp5611
g12
Nsg13
(dp5612
sg19
Nsg20
I00
sbsI160
g0
(g8
g2
Ntp5613
Rp5614
(dp5615
g12
Nsg13
(dp5616
sg19
Nsg20
I00
sbsI161
g0
(g8
g2
Ntp5617
Rp5618
(dp5619
g12
Nsg13
(dp5620
sg19
Nsg20
I00
sbsI162
g0
(g8
g2
Ntp5621
Rp5622
(dp5623
g12
Nsg13
(dp5624
sg19
Nsg20
I00
sbsI168
g0
(g8
g2
Ntp5625
Rp5626
(dp5627
g12
Nsg13
(dp5628
sg19
Nsg20
I00
sbsI169
g0
(g8
g2
Ntp5629
Rp5630
(dp5631
g12
Nsg13
(dp5632
sg19
Nsg20
I01
sbsI170
g0
(g8
g2
Ntp5633
Rp5634
(dp5635
g12
Nsg13
(dp5636
sg19
Nsg20
I01
sbsI172
g0
(g8
g2
Ntp5637
Rp5638
(dp5639
g12
Nsg13
(dp5640
sg19
Nsg20
I00
sbsI184
g0
(g8
g2
Ntp5641
Rp5642
(dp5643
g12
Nsg13
(dp5644
sg19
Nsg20
I00
sbsI189
g0
(g8
g2
Ntp5645
Rp5646
(dp5647
g12
Nsg13
(dp5648
sg19
Nsg20
I00
sbssg19
I36
sg20
Nsbag0
(g8
g2
Ntp5649
Rp5650
(dp5651
g12
I00
sg13
(dp5652
I0
g0
(g8
g2
Ntp5653
Rp5654
(dp5655
g12
Nsg13
(dp5656
sg19
Nsg20
I00
sbsI1
g0
(g8
g2
Ntp5657
Rp5658
(dp5659
g12
Nsg13
(dp5660
sg19
Nsg20
I00
sbsI2
g0
(g8
g2
Ntp5661
Rp5662
(dp5663
g12
Nsg13
(dp5664
sg19
Nsg20
I01
sbsI3
g0
(g8
g2
Ntp5665
Rp5666
(dp5667
g12
Nsg13
(dp5668
sg19
Nsg20
I01
sbsI4
g0
(g8
g2
Ntp5669
Rp5670
(dp5671
g12
Nsg13
(dp5672
sg19
Nsg20
I01
sbsI5
g0
(g8
g2
Ntp5673
Rp5674
(dp5675
g12
Nsg13
(dp5676
sg19
Nsg20
I01
sbsI6
g0
(g8
g2
Ntp5677
Rp5678
(dp5679
g12
Nsg13
(dp5680
sg19
Nsg20
I01
sbsI7
g0
(g8
g2
Ntp5681
Rp5682
(dp5683
g12
Nsg13
(dp5684
sg19
Nsg20
I01
sbsI8
g0
(g8
g2
Ntp5685
Rp5686
(dp5687
g12
Nsg13
(dp5688
sg19
Nsg20
I01
sbsI9
g0
(g8
g2
Ntp5689
Rp5690
(dp5691
g12
Nsg13
(dp5692
sg19
Nsg20
I01
sbsI10
g0
(g8
g2
Ntp5693
Rp5694
(dp5695
g12
Nsg13
(dp5696
sg19
Nsg20
I00
sbsI11
g0
(g8
g2
Ntp5697
Rp5698
(dp5699
g12
Nsg13
(dp5700
sg19
Nsg20
I01
sbsI12
g0
(g8
g2
Ntp5701
Rp5702
(dp5703
g12
Nsg13
(dp5704
sg19
Nsg20
I01
sbsI13
g0
(g8
g2
Ntp5705
Rp5706
(dp5707
g12
Nsg13
(dp5708
sg19
Nsg20
I01
sbsI14
g0
(g8
g2
Ntp5709
Rp5710
(dp5711
g12
Nsg13
(dp5712
sg19
Nsg20
I01
sbssg19
I43
sg20
Nsbag0
(g8
g2
Ntp5713
Rp5714
(dp5715
g12
I01
sg13
(dp5716
I0
g0
(g8
g2
Ntp5717
Rp5718
(dp5719
g12
Nsg13
(dp5720
sg19
Nsg20
I01
sbsI1
g0
(g8
g2
Ntp5721
Rp5722
(dp5723
g12
Nsg13
(dp5724
sg19
Nsg20
I01
sbsI3
g0
(g8
g2
Ntp5725
Rp5726
(dp5727
g12
Nsg13
(dp5728
sg19
Nsg20
I01
sbsI4
g0
(g8
g2
Ntp5729
Rp5730
(dp5731
g12
Nsg13
(dp5732
sg19
Nsg20
I01
sbsI5
g0
(g8
g2
Ntp5733
Rp5734
(dp5735
g12
Nsg13
(dp5736
sg19
Nsg20
I01
sbsI6
g0
(g8
g2
Ntp5737
Rp5738
(dp5739
g12
Nsg13
(dp5740
sg19
Nsg20
I01
sbsI7
g0
(g8
g2
Ntp5741
Rp5742
(dp5743
g12
Nsg13
(dp5744
sg19
Nsg20
I01
sbsI8
g0
(g8
g2
Ntp5745
Rp5746
(dp5747
g12
Nsg13
(dp5748
sg19
Nsg20
I00
sbsI9
g0
(g8
g2
Ntp5749
Rp5750
(dp5751
g12
Nsg13
(dp5752
sg19
Nsg20
I01
sbsI10
g0
(g8
g2
Ntp5753
Rp5754
(dp5755
g12
Nsg13
(dp5756
sg19
Nsg20
I01
sbsI11
g0
(g8
g2
Ntp5757
Rp5758
(dp5759
g12
Nsg13
(dp5760
sg19
Nsg20
I00
sbsI12
g0
(g8
g2
Ntp5761
Rp5762
(dp5763
g12
Nsg13
(dp5764
sg19
Nsg20
I01
sbsI13
g0
(g8
g2
Ntp5765
Rp5766
(dp5767
g12
Nsg13
(dp5768
sg19
Nsg20
I01
sbsI14
g0
(g8
g2
Ntp5769
Rp5770
(dp5771
g12
Nsg13
(dp5772
sg19
Nsg20
I01
sbsI15
g0
(g8
g2
Ntp5773
Rp5774
(dp5775
g12
Nsg13
(dp5776
sg19
Nsg20
I00
sbsI16
g0
(g8
g2
Ntp5777
Rp5778
(dp5779
g12
Nsg13
(dp5780
sg19
Nsg20
I00
sbsI17
g0
(g8
g2
Ntp5781
Rp5782
(dp5783
g12
Nsg13
(dp5784
sg19
Nsg20
I01
sbsI18
g0
(g8
g2
Ntp5785
Rp5786
(dp5787
g12
Nsg13
(dp5788
sg19
Nsg20
I00
sbsI19
g0
(g8
g2
Ntp5789
Rp5790
(dp5791
g12
Nsg13
(dp5792
sg19
Nsg20
I00
sbsI20
g0
(g8
g2
Ntp5793
Rp5794
(dp5795
g12
Nsg13
(dp5796
sg19
Nsg20
I00
sbsI21
g0
(g8
g2
Ntp5797
Rp5798
(dp5799
g12
Nsg13
(dp5800
sg19
Nsg20
I00
sbsI22
g0
(g8
g2
Ntp5801
Rp5802
(dp5803
g12
Nsg13
(dp5804
sg19
Nsg20
I00
sbsI23
g0
(g8
g2
Ntp5805
Rp5806
(dp5807
g12
Nsg13
(dp5808
sg19
Nsg20
I00
sbsI24
g0
(g8
g2
Ntp5809
Rp5810
(dp5811
g12
Nsg13
(dp5812
sg19
Nsg20
I01
sbssg19
I45
sg20
Nsbag0
(g8
g2
Ntp5813
Rp5814
(dp5815
g12
I00
sg13
(dp5816
I0
g0
(g8
g2
Ntp5817
Rp5818
(dp5819
g12
Nsg13
(dp5820
sg19
Nsg20
I00
sbsI1
g0
(g8
g2
Ntp5821
Rp5822
(dp5823
g12
Nsg13
(dp5824
sg19
Nsg20
I00
sbsI2
g0
(g8
g2
Ntp5825
Rp5826
(dp5827
g12
Nsg13
(dp5828
sg19
Nsg20
I00
sbsI3
g0
(g8
g2
Ntp5829
Rp5830
(dp5831
g12
Nsg13
(dp5832
sg19
Nsg20
I00
sbsI4
g0
(g8
g2
Ntp5833
Rp5834
(dp5835
g12
Nsg13
(dp5836
sg19
Nsg20
I01
sbsI5
g0
(g8
g2
Ntp5837
Rp5838
(dp5839
g12
Nsg13
(dp5840
sg19
Nsg20
I01
sbsI6
g0
(g8
g2
Ntp5841
Rp5842
(dp5843
g12
Nsg13
(dp5844
sg19
Nsg20
I01
sbsI7
g0
(g8
g2
Ntp5845
Rp5846
(dp5847
g12
Nsg13
(dp5848
sg19
Nsg20
I01
sbsI8
g0
(g8
g2
Ntp5849
Rp5850
(dp5851
g12
Nsg13
(dp5852
sg19
Nsg20
I01
sbsI9
g0
(g8
g2
Ntp5853
Rp5854
(dp5855
g12
Nsg13
(dp5856
sg19
Nsg20
I01
sbsI10
g0
(g8
g2
Ntp5857
Rp5858
(dp5859
g12
Nsg13
(dp5860
sg19
Nsg20
I01
sbsI11
g0
(g8
g2
Ntp5861
Rp5862
(dp5863
g12
Nsg13
(dp5864
sg19
Nsg20
I01
sbsI12
g0
(g8
g2
Ntp5865
Rp5866
(dp5867
g12
Nsg13
(dp5868
sg19
Nsg20
I01
sbsI13
g0
(g8
g2
Ntp5869
Rp5870
(dp5871
g12
Nsg13
(dp5872
sg19
Nsg20
I01
sbsI14
g0
(g8
g2
Ntp5873
Rp5874
(dp5875
g12
Nsg13
(dp5876
sg19
Nsg20
I01
sbssg19
I43
sg20
Nsbag0
(g8
g2
Ntp5877
Rp5878
(dp5879
g12
I01
sg13
(dp5880
I0
g0
(g8
g2
Ntp5881
Rp5882
(dp5883
g12
Nsg13
(dp5884
sg19
Nsg20
I01
sbsI1
g0
(g8
g2
Ntp5885
Rp5886
(dp5887
g12
Nsg13
(dp5888
sg19
Nsg20
I01
sbsI2
g0
(g8
g2
Ntp5889
Rp5890
(dp5891
g12
Nsg13
(dp5892
sg19
Nsg20
I01
sbsI3
g0
(g8
g2
Ntp5893
Rp5894
(dp5895
g12
Nsg13
(dp5896
sg19
Nsg20
I00
sbsI4
g0
(g8
g2
Ntp5897
Rp5898
(dp5899
g12
Nsg13
(dp5900
sg19
Nsg20
I01
sbsI5
g0
(g8
g2
Ntp5901
Rp5902
(dp5903
g12
Nsg13
(dp5904
sg19
Nsg20
I01
sbsI6
g0
(g8
g2
Ntp5905
Rp5906
(dp5907
g12
Nsg13
(dp5908
sg19
Nsg20
I00
sbsI7
g0
(g8
g2
Ntp5909
Rp5910
(dp5911
g12
Nsg13
(dp5912
sg19
Nsg20
I01
sbsI8
g0
(g8
g2
Ntp5913
Rp5914
(dp5915
g12
Nsg13
(dp5916
sg19
Nsg20
I01
sbsI9
g0
(g8
g2
Ntp5917
Rp5918
(dp5919
g12
Nsg13
(dp5920
sg19
Nsg20
I01
sbsI10
g0
(g8
g2
Ntp5921
Rp5922
(dp5923
g12
Nsg13
(dp5924
sg19
Nsg20
I00
sbsI11
g0
(g8
g2
Ntp5925
Rp5926
(dp5927
g12
Nsg13
(dp5928
sg19
Nsg20
I01
sbsI12
g0
(g8
g2
Ntp5929
Rp5930
(dp5931
g12
Nsg13
(dp5932
sg19
Nsg20
I01
sbsI13
g0
(g8
g2
Ntp5933
Rp5934
(dp5935
g12
Nsg13
(dp5936
sg19
Nsg20
I01
sbsI14
g0
(g8
g2
Ntp5937
Rp5938
(dp5939
g12
Nsg13
(dp5940
sg19
Nsg20
I01
sbsI15
g0
(g8
g2
Ntp5941
Rp5942
(dp5943
g12
Nsg13
(dp5944
sg19
Nsg20
I01
sbsI16
g0
(g8
g2
Ntp5945
Rp5946
(dp5947
g12
Nsg13
(dp5948
sg19
Nsg20
I00
sbsI17
g0
(g8
g2
Ntp5949
Rp5950
(dp5951
g12
Nsg13
(dp5952
sg19
Nsg20
I01
sbsI18
g0
(g8
g2
Ntp5953
Rp5954
(dp5955
g12
Nsg13
(dp5956
sg19
Nsg20
I01
sbsI19
g0
(g8
g2
Ntp5957
Rp5958
(dp5959
g12
Nsg13
(dp5960
sg19
Nsg20
I00
sbsI20
g0
(g8
g2
Ntp5961
Rp5962
(dp5963
g12
Nsg13
(dp5964
sg19
Nsg20
I01
sbsI21
g0
(g8
g2
Ntp5965
Rp5966
(dp5967
g12
Nsg13
(dp5968
sg19
Nsg20
I01
sbsI22
g0
(g8
g2
Ntp5969
Rp5970
(dp5971
g12
Nsg13
(dp5972
sg19
Nsg20
I01
sbsI23
g0
(g8
g2
Ntp5973
Rp5974
(dp5975
g12
Nsg13
(dp5976
sg19
Nsg20
I01
sbsI24
g0
(g8
g2
Ntp5977
Rp5978
(dp5979
g12
Nsg13
(dp5980
sg19
Nsg20
I01
sbsI25
g0
(g8
g2
Ntp5981
Rp5982
(dp5983
g12
Nsg13
(dp5984
sg19
Nsg20
I00
sbsI26
g0
(g8
g2
Ntp5985
Rp5986
(dp5987
g12
Nsg13
(dp5988
sg19
Nsg20
I01
sbsI27
g0
(g8
g2
Ntp5989
Rp5990
(dp5991
g12
Nsg13
(dp5992
sg19
Nsg20
I01
sbsI28
g0
(g8
g2
Ntp5993
Rp5994
(dp5995
g12
Nsg13
(dp5996
sg19
Nsg20
I01
sbsI29
g0
(g8
g2
Ntp5997
Rp5998
(dp5999
g12
Nsg13
(dp6000
sg19
Nsg20
I01
sbsI30
g0
(g8
g2
Ntp6001
Rp6002
(dp6003
g12
Nsg13
(dp6004
sg19
Nsg20
I01
sbsI31
g0
(g8
g2
Ntp6005
Rp6006
(dp6007
g12
Nsg13
(dp6008
sg19
Nsg20
I01
sbsI32
g0
(g8
g2
Ntp6009
Rp6010
(dp6011
g12
Nsg13
(dp6012
sg19
Nsg20
I01
sbsI33
g0
(g8
g2
Ntp6013
Rp6014
(dp6015
g12
Nsg13
(dp6016
sg19
Nsg20
I01
sbsI34
g0
(g8
g2
Ntp6017
Rp6018
(dp6019
g12
Nsg13
(dp6020
sg19
Nsg20
I01
sbsI35
g0
(g8
g2
Ntp6021
Rp6022
(dp6023
g12
Nsg13
(dp6024
sg19
Nsg20
I01
sbsI36
g0
(g8
g2
Ntp6025
Rp6026
(dp6027
g12
Nsg13
(dp6028
sg19
Nsg20
I01
sbsI37
g0
(g8
g2
Ntp6029
Rp6030
(dp6031
g12
Nsg13
(dp6032
sg19
Nsg20
I01
sbsI38
g0
(g8
g2
Ntp6033
Rp6034
(dp6035
g12
Nsg13
(dp6036
sg19
Nsg20
I01
sbsI39
g0
(g8
g2
Ntp6037
Rp6038
(dp6039
g12
Nsg13
(dp6040
sg19
Nsg20
I01
sbsI40
g0
(g8
g2
Ntp6041
Rp6042
(dp6043
g12
Nsg13
(dp6044
sg19
Nsg20
I01
sbsI41
g0
(g8
g2
Ntp6045
Rp6046
(dp6047
g12
Nsg13
(dp6048
sg19
Nsg20
I01
sbsI42
g0
(g8
g2
Ntp6049
Rp6050
(dp6051
g12
Nsg13
(dp6052
sg19
Nsg20
I01
sbsI43
g0
(g8
g2
Ntp6053
Rp6054
(dp6055
g12
Nsg13
(dp6056
sg19
Nsg20
I00
sbsI44
g0
(g8
g2
Ntp6057
Rp6058
(dp6059
g12
Nsg13
(dp6060
sg19
Nsg20
I01
sbsI45
g0
(g8
g2
Ntp6061
Rp6062
(dp6063
g12
Nsg13
(dp6064
sg19
Nsg20
I01
sbsI46
g0
(g8
g2
Ntp6065
Rp6066
(dp6067
g12
Nsg13
(dp6068
sg19
Nsg20
I01
sbsI47
g0
(g8
g2
Ntp6069
Rp6070
(dp6071
g12
Nsg13
(dp6072
sg19
Nsg20
I01
sbsI48
g0
(g8
g2
Ntp6073
Rp6074
(dp6075
g12
Nsg13
(dp6076
sg19
Nsg20
I00
sbsI49
g0
(g8
g2
Ntp6077
Rp6078
(dp6079
g12
Nsg13
(dp6080
sg19
Nsg20
I00
sbsI50
g0
(g8
g2
Ntp6081
Rp6082
(dp6083
g12
Nsg13
(dp6084
sg19
Nsg20
I01
sbsI51
g0
(g8
g2
Ntp6085
Rp6086
(dp6087
g12
Nsg13
(dp6088
sg19
Nsg20
I01
sbsI52
g0
(g8
g2
Ntp6089
Rp6090
(dp6091
g12
Nsg13
(dp6092
sg19
Nsg20
I01
sbsI53
g0
(g8
g2
Ntp6093
Rp6094
(dp6095
g12
Nsg13
(dp6096
sg19
Nsg20
I01
sbsI54
g0
(g8
g2
Ntp6097
Rp6098
(dp6099
g12
Nsg13
(dp6100
sg19
Nsg20
I01
sbsI55
g0
(g8
g2
Ntp6101
Rp6102
(dp6103
g12
Nsg13
(dp6104
sg19
Nsg20
I00
sbsI56
g0
(g8
g2
Ntp6105
Rp6106
(dp6107
g12
Nsg13
(dp6108
sg19
Nsg20
I00
sbsI57
g0
(g8
g2
Ntp6109
Rp6110
(dp6111
g12
Nsg13
(dp6112
sg19
Nsg20
I00
sbsI58
g0
(g8
g2
Ntp6113
Rp6114
(dp6115
g12
Nsg13
(dp6116
sg19
Nsg20
I01
sbsI59
g0
(g8
g2
Ntp6117
Rp6118
(dp6119
g12
Nsg13
(dp6120
sg19
Nsg20
I00
sbsI60
g0
(g8
g2
Ntp6121
Rp6122
(dp6123
g12
Nsg13
(dp6124
sg19
Nsg20
I01
sbsI61
g0
(g8
g2
Ntp6125
Rp6126
(dp6127
g12
Nsg13
(dp6128
sg19
Nsg20
I01
sbsI62
g0
(g8
g2
Ntp6129
Rp6130
(dp6131
g12
Nsg13
(dp6132
sg19
Nsg20
I01
sbsI63
g0
(g8
g2
Ntp6133
Rp6134
(dp6135
g12
Nsg13
(dp6136
sg19
Nsg20
I01
sbsI64
g0
(g8
g2
Ntp6137
Rp6138
(dp6139
g12
Nsg13
(dp6140
sg19
Nsg20
I01
sbsI65
g0
(g8
g2
Ntp6141
Rp6142
(dp6143
g12
Nsg13
(dp6144
sg19
Nsg20
I01
sbsI66
g0
(g8
g2
Ntp6145
Rp6146
(dp6147
g12
Nsg13
(dp6148
sg19
Nsg20
I01
sbsI67
g0
(g8
g2
Ntp6149
Rp6150
(dp6151
g12
Nsg13
(dp6152
sg19
Nsg20
I01
sbsI68
g0
(g8
g2
Ntp6153
Rp6154
(dp6155
g12
Nsg13
(dp6156
sg19
Nsg20
I01
sbsI69
g0
(g8
g2
Ntp6157
Rp6158
(dp6159
g12
Nsg13
(dp6160
sg19
Nsg20
I00
sbsI70
g0
(g8
g2
Ntp6161
Rp6162
(dp6163
g12
Nsg13
(dp6164
sg19
Nsg20
I01
sbsI71
g0
(g8
g2
Ntp6165
Rp6166
(dp6167
g12
Nsg13
(dp6168
sg19
Nsg20
I01
sbsI72
g0
(g8
g2
Ntp6169
Rp6170
(dp6171
g12
Nsg13
(dp6172
sg19
Nsg20
I00
sbsI73
g0
(g8
g2
Ntp6173
Rp6174
(dp6175
g12
Nsg13
(dp6176
sg19
Nsg20
I01
sbsI74
g0
(g8
g2
Ntp6177
Rp6178
(dp6179
g12
Nsg13
(dp6180
sg19
Nsg20
I01
sbsI75
g0
(g8
g2
Ntp6181
Rp6182
(dp6183
g12
Nsg13
(dp6184
sg19
Nsg20
I00
sbsI76
g0
(g8
g2
Ntp6185
Rp6186
(dp6187
g12
Nsg13
(dp6188
sg19
Nsg20
I01
sbsI77
g0
(g8
g2
Ntp6189
Rp6190
(dp6191
g12
Nsg13
(dp6192
sg19
Nsg20
I01
sbsI78
g0
(g8
g2
Ntp6193
Rp6194
(dp6195
g12
Nsg13
(dp6196
sg19
Nsg20
I00
sbsI79
g0
(g8
g2
Ntp6197
Rp6198
(dp6199
g12
Nsg13
(dp6200
sg19
Nsg20
I01
sbsI80
g0
(g8
g2
Ntp6201
Rp6202
(dp6203
g12
Nsg13
(dp6204
sg19
Nsg20
I00
sbsI81
g0
(g8
g2
Ntp6205
Rp6206
(dp6207
g12
Nsg13
(dp6208
sg19
Nsg20
I01
sbsI82
g0
(g8
g2
Ntp6209
Rp6210
(dp6211
g12
Nsg13
(dp6212
sg19
Nsg20
I01
sbsI83
g0
(g8
g2
Ntp6213
Rp6214
(dp6215
g12
Nsg13
(dp6216
sg19
Nsg20
I00
sbsI84
g0
(g8
g2
Ntp6217
Rp6218
(dp6219
g12
Nsg13
(dp6220
sg19
Nsg20
I01
sbsI85
g0
(g8
g2
Ntp6221
Rp6222
(dp6223
g12
Nsg13
(dp6224
sg19
Nsg20
I00
sbsI86
g0
(g8
g2
Ntp6225
Rp6226
(dp6227
g12
Nsg13
(dp6228
sg19
Nsg20
I00
sbsI87
g0
(g8
g2
Ntp6229
Rp6230
(dp6231
g12
Nsg13
(dp6232
sg19
Nsg20
I00
sbsI88
g0
(g8
g2
Ntp6233
Rp6234
(dp6235
g12
Nsg13
(dp6236
sg19
Nsg20
I01
sbsI89
g0
(g8
g2
Ntp6237
Rp6238
(dp6239
g12
Nsg13
(dp6240
sg19
Nsg20
I01
sbsI90
g0
(g8
g2
Ntp6241
Rp6242
(dp6243
g12
Nsg13
(dp6244
sg19
Nsg20
I01
sbsI91
g0
(g8
g2
Ntp6245
Rp6246
(dp6247
g12
Nsg13
(dp6248
sg19
Nsg20
I01
sbsI92
g0
(g8
g2
Ntp6249
Rp6250
(dp6251
g12
Nsg13
(dp6252
sg19
Nsg20
I00
sbsI93
g0
(g8
g2
Ntp6253
Rp6254
(dp6255
g12
Nsg13
(dp6256
sg19
Nsg20
I00
sbsI94
g0
(g8
g2
Ntp6257
Rp6258
(dp6259
g12
Nsg13
(dp6260
sg19
Nsg20
I00
sbsI95
g0
(g8
g2
Ntp6261
Rp6262
(dp6263
g12
Nsg13
(dp6264
sg19
Nsg20
I01
sbsI96
g0
(g8
g2
Ntp6265
Rp6266
(dp6267
g12
Nsg13
(dp6268
sg19
Nsg20
I01
sbsI97
g0
(g8
g2
Ntp6269
Rp6270
(dp6271
g12
Nsg13
(dp6272
sg19
Nsg20
I00
sbsI98
g0
(g8
g2
Ntp6273
Rp6274
(dp6275
g12
Nsg13
(dp6276
sg19
Nsg20
I01
sbsI99
g0
(g8
g2
Ntp6277
Rp6278
(dp6279
g12
Nsg13
(dp6280
sg19
Nsg20
I01
sbsI100
g0
(g8
g2
Ntp6281
Rp6282
(dp6283
g12
Nsg13
(dp6284
sg19
Nsg20
I00
sbsI101
g0
(g8
g2
Ntp6285
Rp6286
(dp6287
g12
Nsg13
(dp6288
sg19
Nsg20
I01
sbsI102
g0
(g8
g2
Ntp6289
Rp6290
(dp6291
g12
Nsg13
(dp6292
sg19
Nsg20
I00
sbsI103
g0
(g8
g2
Ntp6293
Rp6294
(dp6295
g12
Nsg13
(dp6296
sg19
Nsg20
I00
sbsI104
g0
(g8
g2
Ntp6297
Rp6298
(dp6299
g12
Nsg13
(dp6300
sg19
Nsg20
I01
sbsI105
g0
(g8
g2
Ntp6301
Rp6302
(dp6303
g12
Nsg13
(dp6304
sg19
Nsg20
I01
sbsI106
g0
(g8
g2
Ntp6305
Rp6306
(dp6307
g12
Nsg13
(dp6308
sg19
Nsg20
I01
sbsI107
g0
(g8
g2
Ntp6309
Rp6310
(dp6311
g12
Nsg13
(dp6312
sg19
Nsg20
I00
sbsI108
g0
(g8
g2
Ntp6313
Rp6314
(dp6315
g12
Nsg13
(dp6316
sg19
Nsg20
I01
sbsI109
g0
(g8
g2
Ntp6317
Rp6318
(dp6319
g12
Nsg13
(dp6320
sg19
Nsg20
I01
sbsI110
g0
(g8
g2
Ntp6321
Rp6322
(dp6323
g12
Nsg13
(dp6324
sg19
Nsg20
I00
sbsI111
g0
(g8
g2
Ntp6325
Rp6326
(dp6327
g12
Nsg13
(dp6328
sg19
Nsg20
I00
sbsI112
g0
(g8
g2
Ntp6329
Rp6330
(dp6331
g12
Nsg13
(dp6332
sg19
Nsg20
I01
sbsI113
g0
(g8
g2
Ntp6333
Rp6334
(dp6335
g12
Nsg13
(dp6336
sg19
Nsg20
I00
sbsI114
g0
(g8
g2
Ntp6337
Rp6338
(dp6339
g12
Nsg13
(dp6340
sg19
Nsg20
I01
sbsI115
g0
(g8
g2
Ntp6341
Rp6342
(dp6343
g12
Nsg13
(dp6344
sg19
Nsg20
I00
sbsI116
g0
(g8
g2
Ntp6345
Rp6346
(dp6347
g12
Nsg13
(dp6348
sg19
Nsg20
I00
sbsI117
g0
(g8
g2
Ntp6349
Rp6350
(dp6351
g12
Nsg13
(dp6352
sg19
Nsg20
I00
sbsI118
g0
(g8
g2
Ntp6353
Rp6354
(dp6355
g12
Nsg13
(dp6356
sg19
Nsg20
I00
sbsI119
g0
(g8
g2
Ntp6357
Rp6358
(dp6359
g12
Nsg13
(dp6360
sg19
Nsg20
I00
sbsI120
g0
(g8
g2
Ntp6361
Rp6362
(dp6363
g12
Nsg13
(dp6364
sg19
Nsg20
I01
sbsI121
g0
(g8
g2
Ntp6365
Rp6366
(dp6367
g12
Nsg13
(dp6368
sg19
Nsg20
I00
sbsI122
g0
(g8
g2
Ntp6369
Rp6370
(dp6371
g12
Nsg13
(dp6372
sg19
Nsg20
I01
sbsI123
g0
(g8
g2
Ntp6373
Rp6374
(dp6375
g12
Nsg13
(dp6376
sg19
Nsg20
I00
sbsI124
g0
(g8
g2
Ntp6377
Rp6378
(dp6379
g12
Nsg13
(dp6380
sg19
Nsg20
I00
sbsI125
g0
(g8
g2
Ntp6381
Rp6382
(dp6383
g12
Nsg13
(dp6384
sg19
Nsg20
I00
sbsI126
g0
(g8
g2
Ntp6385
Rp6386
(dp6387
g12
Nsg13
(dp6388
sg19
Nsg20
I00
sbsI127
g0
(g8
g2
Ntp6389
Rp6390
(dp6391
g12
Nsg13
(dp6392
sg19
Nsg20
I00
sbsI128
g0
(g8
g2
Ntp6393
Rp6394
(dp6395
g12
Nsg13
(dp6396
sg19
Nsg20
I00
sbsI129
g0
(g8
g2
Ntp6397
Rp6398
(dp6399
g12
Nsg13
(dp6400
sg19
Nsg20
I00
sbsI130
g0
(g8
g2
Ntp6401
Rp6402
(dp6403
g12
Nsg13
(dp6404
sg19
Nsg20
I01
sbsI131
g0
(g8
g2
Ntp6405
Rp6406
(dp6407
g12
Nsg13
(dp6408
sg19
Nsg20
I01
sbsI132
g0
(g8
g2
Ntp6409
Rp6410
(dp6411
g12
Nsg13
(dp6412
sg19
Nsg20
I00
sbsI133
g0
(g8
g2
Ntp6413
Rp6414
(dp6415
g12
Nsg13
(dp6416
sg19
Nsg20
I00
sbsI134
g0
(g8
g2
Ntp6417
Rp6418
(dp6419
g12
Nsg13
(dp6420
sg19
Nsg20
I00
sbsI135
g0
(g8
g2
Ntp6421
Rp6422
(dp6423
g12
Nsg13
(dp6424
sg19
Nsg20
I00
sbsI136
g0
(g8
g2
Ntp6425
Rp6426
(dp6427
g12
Nsg13
(dp6428
sg19
Nsg20
I00
sbsI137
g0
(g8
g2
Ntp6429
Rp6430
(dp6431
g12
Nsg13
(dp6432
sg19
Nsg20
I00
sbsI138
g0
(g8
g2
Ntp6433
Rp6434
(dp6435
g12
Nsg13
(dp6436
sg19
Nsg20
I00
sbsI139
g0
(g8
g2
Ntp6437
Rp6438
(dp6439
g12
Nsg13
(dp6440
sg19
Nsg20
I00
sbsI140
g0
(g8
g2
Ntp6441
Rp6442
(dp6443
g12
Nsg13
(dp6444
sg19
Nsg20
I00
sbsI141
g0
(g8
g2
Ntp6445
Rp6446
(dp6447
g12
Nsg13
(dp6448
sg19
Nsg20
I00
sbsI142
g0
(g8
g2
Ntp6449
Rp6450
(dp6451
g12
Nsg13
(dp6452
sg19
Nsg20
I01
sbsI144
g0
(g8
g2
Ntp6453
Rp6454
(dp6455
g12
Nsg13
(dp6456
sg19
Nsg20
I00
sbsI145
g0
(g8
g2
Ntp6457
Rp6458
(dp6459
g12
Nsg13
(dp6460
sg19
Nsg20
I01
sbsI146
g0
(g8
g2
Ntp6461
Rp6462
(dp6463
g12
Nsg13
(dp6464
sg19
Nsg20
I00
sbsI147
g0
(g8
g2
Ntp6465
Rp6466
(dp6467
g12
Nsg13
(dp6468
sg19
Nsg20
I00
sbsI148
g0
(g8
g2
Ntp6469
Rp6470
(dp6471
g12
Nsg13
(dp6472
sg19
Nsg20
I00
sbsI149
g0
(g8
g2
Ntp6473
Rp6474
(dp6475
g12
Nsg13
(dp6476
sg19
Nsg20
I00
sbsI150
g0
(g8
g2
Ntp6477
Rp6478
(dp6479
g12
Nsg13
(dp6480
sg19
Nsg20
I00
sbsI151
g0
(g8
g2
Ntp6481
Rp6482
(dp6483
g12
Nsg13
(dp6484
sg19
Nsg20
I00
sbsI152
g0
(g8
g2
Ntp6485
Rp6486
(dp6487
g12
Nsg13
(dp6488
sg19
Nsg20
I00
sbsI153
g0
(g8
g2
Ntp6489
Rp6490
(dp6491
g12
Nsg13
(dp6492
sg19
Nsg20
I00
sbsI154
g0
(g8
g2
Ntp6493
Rp6494
(dp6495
g12
Nsg13
(dp6496
sg19
Nsg20
I01
sbsI157
g0
(g8
g2
Ntp6497
Rp6498
(dp6499
g12
Nsg13
(dp6500
sg19
Nsg20
I00
sbsI160
g0
(g8
g2
Ntp6501
Rp6502
(dp6503
g12
Nsg13
(dp6504
sg19
Nsg20
I00
sbsI161
g0
(g8
g2
Ntp6505
Rp6506
(dp6507
g12
Nsg13
(dp6508
sg19
Nsg20
I00
sbsI162
g0
(g8
g2
Ntp6509
Rp6510
(dp6511
g12
Nsg13
(dp6512
sg19
Nsg20
I00
sbsI168
g0
(g8
g2
Ntp6513
Rp6514
(dp6515
g12
Nsg13
(dp6516
sg19
Nsg20
I00
sbsI169
g0
(g8
g2
Ntp6517
Rp6518
(dp6519
g12
Nsg13
(dp6520
sg19
Nsg20
I01
sbsI170
g0
(g8
g2
Ntp6521
Rp6522
(dp6523
g12
Nsg13
(dp6524
sg19
Nsg20
I01
sbsI172
g0
(g8
g2
Ntp6525
Rp6526
(dp6527
g12
Nsg13
(dp6528
sg19
Nsg20
I00
sbsI184
g0
(g8
g2
Ntp6529
Rp6530
(dp6531
g12
Nsg13
(dp6532
sg19
Nsg20
I00
sbsI189
g0
(g8
g2
Ntp6533
Rp6534
(dp6535
g12
Nsg13
(dp6536
sg19
Nsg20
I00
sbssg19
I36
sg20
Nsbag0
(g8
g2
Ntp6537
Rp6538
(dp6539
g12
I00
sg13
(dp6540
I0
g0
(g8
g2
Ntp6541
Rp6542
(dp6543
g12
Nsg13
(dp6544
sg19
Nsg20
I01
sbsI1
g0
(g8
g2
Ntp6545
Rp6546
(dp6547
g12
Nsg13
(dp6548
sg19
Nsg20
I01
sbsI2
g0
(g8
g2
Ntp6549
Rp6550
(dp6551
g12
Nsg13
(dp6552
sg19
Nsg20
I01
sbsI3
g0
(g8
g2
Ntp6553
Rp6554
(dp6555
g12
Nsg13
(dp6556
sg19
Nsg20
I00
sbsI4
g0
(g8
g2
Ntp6557
Rp6558
(dp6559
g12
Nsg13
(dp6560
sg19
Nsg20
I01
sbsI5
g0
(g8
g2
Ntp6561
Rp6562
(dp6563
g12
Nsg13
(dp6564
sg19
Nsg20
I01
sbsI6
g0
(g8
g2
Ntp6565
Rp6566
(dp6567
g12
Nsg13
(dp6568
sg19
Nsg20
I01
sbsI7
g0
(g8
g2
Ntp6569
Rp6570
(dp6571
g12
Nsg13
(dp6572
sg19
Nsg20
I00
sbsI8
g0
(g8
g2
Ntp6573
Rp6574
(dp6575
g12
Nsg13
(dp6576
sg19
Nsg20
I00
sbsI9
g0
(g8
g2
Ntp6577
Rp6578
(dp6579
g12
Nsg13
(dp6580
sg19
Nsg20
I00
sbsI10
g0
(g8
g2
Ntp6581
Rp6582
(dp6583
g12
Nsg13
(dp6584
sg19
Nsg20
I01
sbsI11
g0
(g8
g2
Ntp6585
Rp6586
(dp6587
g12
Nsg13
(dp6588
sg19
Nsg20
I01
sbsI12
g0
(g8
g2
Ntp6589
Rp6590
(dp6591
g12
Nsg13
(dp6592
sg19
Nsg20
I00
sbsI13
g0
(g8
g2
Ntp6593
Rp6594
(dp6595
g12
Nsg13
(dp6596
sg19
Nsg20
I00
sbsI14
g0
(g8
g2
Ntp6597
Rp6598
(dp6599
g12
Nsg13
(dp6600
sg19
Nsg20
I01
sbsI15
g0
(g8
g2
Ntp6601
Rp6602
(dp6603
g12
Nsg13
(dp6604
sg19
Nsg20
I00
sbsI16
g0
(g8
g2
Ntp6605
Rp6606
(dp6607
g12
Nsg13
(dp6608
sg19
Nsg20
I01
sbsI17
g0
(g8
g2
Ntp6609
Rp6610
(dp6611
g12
Nsg13
(dp6612
sg19
Nsg20
I00
sbsI18
g0
(g8
g2
Ntp6613
Rp6614
(dp6615
g12
Nsg13
(dp6616
sg19
Nsg20
I01
sbsI19
g0
(g8
g2
Ntp6617
Rp6618
(dp6619
g12
Nsg13
(dp6620
sg19
Nsg20
I01
sbsI20
g0
(g8
g2
Ntp6621
Rp6622
(dp6623
g12
Nsg13
(dp6624
sg19
Nsg20
I00
sbsI21
g0
(g8
g2
Ntp6625
Rp6626
(dp6627
g12
Nsg13
(dp6628
sg19
Nsg20
I00
sbsI22
g0
(g8
g2
Ntp6629
Rp6630
(dp6631
g12
Nsg13
(dp6632
sg19
Nsg20
I00
sbsI23
g0
(g8
g2
Ntp6633
Rp6634
(dp6635
g12
Nsg13
(dp6636
sg19
Nsg20
I00
sbsI24
g0
(g8
g2
Ntp6637
Rp6638
(dp6639
g12
Nsg13
(dp6640
sg19
Nsg20
I00
sbsI25
g0
(g8
g2
Ntp6641
Rp6642
(dp6643
g12
Nsg13
(dp6644
sg19
Nsg20
I01
sbsI26
g0
(g8
g2
Ntp6645
Rp6646
(dp6647
g12
Nsg13
(dp6648
sg19
Nsg20
I00
sbsI27
g0
(g8
g2
Ntp6649
Rp6650
(dp6651
g12
Nsg13
(dp6652
sg19
Nsg20
I00
sbsI28
g0
(g8
g2
Ntp6653
Rp6654
(dp6655
g12
Nsg13
(dp6656
sg19
Nsg20
I00
sbsI29
g0
(g8
g2
Ntp6657
Rp6658
(dp6659
g12
Nsg13
(dp6660
sg19
Nsg20
I01
sbsI30
g0
(g8
g2
Ntp6661
Rp6662
(dp6663
g12
Nsg13
(dp6664
sg19
Nsg20
I01
sbsI31
g0
(g8
g2
Ntp6665
Rp6666
(dp6667
g12
Nsg13
(dp6668
sg19
Nsg20
I00
sbsI32
g0
(g8
g2
Ntp6669
Rp6670
(dp6671
g12
Nsg13
(dp6672
sg19
Nsg20
I00
sbsI33
g0
(g8
g2
Ntp6673
Rp6674
(dp6675
g12
Nsg13
(dp6676
sg19
Nsg20
I01
sbsI34
g0
(g8
g2
Ntp6677
Rp6678
(dp6679
g12
Nsg13
(dp6680
sg19
Nsg20
I01
sbsI35
g0
(g8
g2
Ntp6681
Rp6682
(dp6683
g12
Nsg13
(dp6684
sg19
Nsg20
I01
sbsI36
g0
(g8
g2
Ntp6685
Rp6686
(dp6687
g12
Nsg13
(dp6688
sg19
Nsg20
I01
sbsI37
g0
(g8
g2
Ntp6689
Rp6690
(dp6691
g12
Nsg13
(dp6692
sg19
Nsg20
I01
sbsI38
g0
(g8
g2
Ntp6693
Rp6694
(dp6695
g12
Nsg13
(dp6696
sg19
Nsg20
I00
sbsI39
g0
(g8
g2
Ntp6697
Rp6698
(dp6699
g12
Nsg13
(dp6700
sg19
Nsg20
I01
sbsI40
g0
(g8
g2
Ntp6701
Rp6702
(dp6703
g12
Nsg13
(dp6704
sg19
Nsg20
I00
sbsI41
g0
(g8
g2
Ntp6705
Rp6706
(dp6707
g12
Nsg13
(dp6708
sg19
Nsg20
I01
sbsI42
g0
(g8
g2
Ntp6709
Rp6710
(dp6711
g12
Nsg13
(dp6712
sg19
Nsg20
I00
sbsI43
g0
(g8
g2
Ntp6713
Rp6714
(dp6715
g12
Nsg13
(dp6716
sg19
Nsg20
I01
sbsI44
g0
(g8
g2
Ntp6717
Rp6718
(dp6719
g12
Nsg13
(dp6720
sg19
Nsg20
I00
sbsI45
g0
(g8
g2
Ntp6721
Rp6722
(dp6723
g12
Nsg13
(dp6724
sg19
Nsg20
I01
sbsI46
g0
(g8
g2
Ntp6725
Rp6726
(dp6727
g12
Nsg13
(dp6728
sg19
Nsg20
I01
sbsI47
g0
(g8
g2
Ntp6729
Rp6730
(dp6731
g12
Nsg13
(dp6732
sg19
Nsg20
I01
sbsI48
g0
(g8
g2
Ntp6733
Rp6734
(dp6735
g12
Nsg13
(dp6736
sg19
Nsg20
I01
sbsI49
g0
(g8
g2
Ntp6737
Rp6738
(dp6739
g12
Nsg13
(dp6740
sg19
Nsg20
I01
sbsI50
g0
(g8
g2
Ntp6741
Rp6742
(dp6743
g12
Nsg13
(dp6744
sg19
Nsg20
I01
sbsI51
g0
(g8
g2
Ntp6745
Rp6746
(dp6747
g12
Nsg13
(dp6748
sg19
Nsg20
I01
sbsI52
g0
(g8
g2
Ntp6749
Rp6750
(dp6751
g12
Nsg13
(dp6752
sg19
Nsg20
I01
sbsI53
g0
(g8
g2
Ntp6753
Rp6754
(dp6755
g12
Nsg13
(dp6756
sg19
Nsg20
I01
sbsI54
g0
(g8
g2
Ntp6757
Rp6758
(dp6759
g12
Nsg13
(dp6760
sg19
Nsg20
I01
sbsI55
g0
(g8
g2
Ntp6761
Rp6762
(dp6763
g12
Nsg13
(dp6764
sg19
Nsg20
I01
sbsI56
g0
(g8
g2
Ntp6765
Rp6766
(dp6767
g12
Nsg13
(dp6768
sg19
Nsg20
I01
sbsI57
g0
(g8
g2
Ntp6769
Rp6770
(dp6771
g12
Nsg13
(dp6772
sg19
Nsg20
I01
sbsI58
g0
(g8
g2
Ntp6773
Rp6774
(dp6775
g12
Nsg13
(dp6776
sg19
Nsg20
I00
sbsI59
g0
(g8
g2
Ntp6777
Rp6778
(dp6779
g12
Nsg13
(dp6780
sg19
Nsg20
I01
sbsI60
g0
(g8
g2
Ntp6781
Rp6782
(dp6783
g12
Nsg13
(dp6784
sg19
Nsg20
I00
sbsI61
g0
(g8
g2
Ntp6785
Rp6786
(dp6787
g12
Nsg13
(dp6788
sg19
Nsg20
I01
sbsI62
g0
(g8
g2
Ntp6789
Rp6790
(dp6791
g12
Nsg13
(dp6792
sg19
Nsg20
I00
sbsI63
g0
(g8
g2
Ntp6793
Rp6794
(dp6795
g12
Nsg13
(dp6796
sg19
Nsg20
I00
sbsI64
g0
(g8
g2
Ntp6797
Rp6798
(dp6799
g12
Nsg13
(dp6800
sg19
Nsg20
I00
sbsI65
g0
(g8
g2
Ntp6801
Rp6802
(dp6803
g12
Nsg13
(dp6804
sg19
Nsg20
I00
sbsI66
g0
(g8
g2
Ntp6805
Rp6806
(dp6807
g12
Nsg13
(dp6808
sg19
Nsg20
I01
sbsI67
g0
(g8
g2
Ntp6809
Rp6810
(dp6811
g12
Nsg13
(dp6812
sg19
Nsg20
I01
sbsI68
g0
(g8
g2
Ntp6813
Rp6814
(dp6815
g12
Nsg13
(dp6816
sg19
Nsg20
I01
sbsI69
g0
(g8
g2
Ntp6817
Rp6818
(dp6819
g12
Nsg13
(dp6820
sg19
Nsg20
I01
sbsI70
g0
(g8
g2
Ntp6821
Rp6822
(dp6823
g12
Nsg13
(dp6824
sg19
Nsg20
I01
sbsI71
g0
(g8
g2
Ntp6825
Rp6826
(dp6827
g12
Nsg13
(dp6828
sg19
Nsg20
I00
sbsI72
g0
(g8
g2
Ntp6829
Rp6830
(dp6831
g12
Nsg13
(dp6832
sg19
Nsg20
I01
sbsI73
g0
(g8
g2
Ntp6833
Rp6834
(dp6835
g12
Nsg13
(dp6836
sg19
Nsg20
I00
sbsI74
g0
(g8
g2
Ntp6837
Rp6838
(dp6839
g12
Nsg13
(dp6840
sg19
Nsg20
I00
sbsI75
g0
(g8
g2
Ntp6841
Rp6842
(dp6843
g12
Nsg13
(dp6844
sg19
Nsg20
I01
sbsI76
g0
(g8
g2
Ntp6845
Rp6846
(dp6847
g12
Nsg13
(dp6848
sg19
Nsg20
I00
sbsI77
g0
(g8
g2
Ntp6849
Rp6850
(dp6851
g12
Nsg13
(dp6852
sg19
Nsg20
I00
sbsI78
g0
(g8
g2
Ntp6853
Rp6854
(dp6855
g12
Nsg13
(dp6856
sg19
Nsg20
I01
sbsI79
g0
(g8
g2
Ntp6857
Rp6858
(dp6859
g12
Nsg13
(dp6860
sg19
Nsg20
I00
sbsI80
g0
(g8
g2
Ntp6861
Rp6862
(dp6863
g12
Nsg13
(dp6864
sg19
Nsg20
I00
sbsI81
g0
(g8
g2
Ntp6865
Rp6866
(dp6867
g12
Nsg13
(dp6868
sg19
Nsg20
I00
sbsI82
g0
(g8
g2
Ntp6869
Rp6870
(dp6871
g12
Nsg13
(dp6872
sg19
Nsg20
I01
sbsI83
g0
(g8
g2
Ntp6873
Rp6874
(dp6875
g12
Nsg13
(dp6876
sg19
Nsg20
I01
sbsI84
g0
(g8
g2
Ntp6877
Rp6878
(dp6879
g12
Nsg13
(dp6880
sg19
Nsg20
I01
sbsI85
g0
(g8
g2
Ntp6881
Rp6882
(dp6883
g12
Nsg13
(dp6884
sg19
Nsg20
I01
sbsI86
g0
(g8
g2
Ntp6885
Rp6886
(dp6887
g12
Nsg13
(dp6888
sg19
Nsg20
I01
sbsI87
g0
(g8
g2
Ntp6889
Rp6890
(dp6891
g12
Nsg13
(dp6892
sg19
Nsg20
I01
sbsI88
g0
(g8
g2
Ntp6893
Rp6894
(dp6895
g12
Nsg13
(dp6896
sg19
Nsg20
I00
sbsI89
g0
(g8
g2
Ntp6897
Rp6898
(dp6899
g12
Nsg13
(dp6900
sg19
Nsg20
I01
sbsI90
g0
(g8
g2
Ntp6901
Rp6902
(dp6903
g12
Nsg13
(dp6904
sg19
Nsg20
I01
sbsI91
g0
(g8
g2
Ntp6905
Rp6906
(dp6907
g12
Nsg13
(dp6908
sg19
Nsg20
I00
sbsI92
g0
(g8
g2
Ntp6909
Rp6910
(dp6911
g12
Nsg13
(dp6912
sg19
Nsg20
I00
sbsI93
g0
(g8
g2
Ntp6913
Rp6914
(dp6915
g12
Nsg13
(dp6916
sg19
Nsg20
I01
sbsI94
g0
(g8
g2
Ntp6917
Rp6918
(dp6919
g12
Nsg13
(dp6920
sg19
Nsg20
I01
sbsI95
g0
(g8
g2
Ntp6921
Rp6922
(dp6923
g12
Nsg13
(dp6924
sg19
Nsg20
I00
sbsI96
g0
(g8
g2
Ntp6925
Rp6926
(dp6927
g12
Nsg13
(dp6928
sg19
Nsg20
I01
sbsI97
g0
(g8
g2
Ntp6929
Rp6930
(dp6931
g12
Nsg13
(dp6932
sg19
Nsg20
I01
sbsI98
g0
(g8
g2
Ntp6933
Rp6934
(dp6935
g12
Nsg13
(dp6936
sg19
Nsg20
I00
sbsI99
g0
(g8
g2
Ntp6937
Rp6938
(dp6939
g12
Nsg13
(dp6940
sg19
Nsg20
I00
sbsI100
g0
(g8
g2
Ntp6941
Rp6942
(dp6943
g12
Nsg13
(dp6944
sg19
Nsg20
I00
sbsI101
g0
(g8
g2
Ntp6945
Rp6946
(dp6947
g12
Nsg13
(dp6948
sg19
Nsg20
I01
sbsI102
g0
(g8
g2
Ntp6949
Rp6950
(dp6951
g12
Nsg13
(dp6952
sg19
Nsg20
I00
sbsI103
g0
(g8
g2
Ntp6953
Rp6954
(dp6955
g12
Nsg13
(dp6956
sg19
Nsg20
I00
sbsI104
g0
(g8
g2
Ntp6957
Rp6958
(dp6959
g12
Nsg13
(dp6960
sg19
Nsg20
I01
sbsI105
g0
(g8
g2
Ntp6961
Rp6962
(dp6963
g12
Nsg13
(dp6964
sg19
Nsg20
I01
sbsI106
g0
(g8
g2
Ntp6965
Rp6966
(dp6967
g12
Nsg13
(dp6968
sg19
Nsg20
I00
sbsI107
g0
(g8
g2
Ntp6969
Rp6970
(dp6971
g12
Nsg13
(dp6972
sg19
Nsg20
I00
sbsI108
g0
(g8
g2
Ntp6973
Rp6974
(dp6975
g12
Nsg13
(dp6976
sg19
Nsg20
I01
sbsI109
g0
(g8
g2
Ntp6977
Rp6978
(dp6979
g12
Nsg13
(dp6980
sg19
Nsg20
I01
sbsI110
g0
(g8
g2
Ntp6981
Rp6982
(dp6983
g12
Nsg13
(dp6984
sg19
Nsg20
I01
sbsI111
g0
(g8
g2
Ntp6985
Rp6986
(dp6987
g12
Nsg13
(dp6988
sg19
Nsg20
I01
sbsI112
g0
(g8
g2
Ntp6989
Rp6990
(dp6991
g12
Nsg13
(dp6992
sg19
Nsg20
I01
sbsI113
g0
(g8
g2
Ntp6993
Rp6994
(dp6995
g12
Nsg13
(dp6996
sg19
Nsg20
I00
sbsI114
g0
(g8
g2
Ntp6997
Rp6998
(dp6999
g12
Nsg13
(dp7000
sg19
Nsg20
I01
sbsI115
g0
(g8
g2
Ntp7001
Rp7002
(dp7003
g12
Nsg13
(dp7004
sg19
Nsg20
I00
sbsI116
g0
(g8
g2
Ntp7005
Rp7006
(dp7007
g12
Nsg13
(dp7008
sg19
Nsg20
I00
sbsI117
g0
(g8
g2
Ntp7009
Rp7010
(dp7011
g12
Nsg13
(dp7012
sg19
Nsg20
I01
sbsI118
g0
(g8
g2
Ntp7013
Rp7014
(dp7015
g12
Nsg13
(dp7016
sg19
Nsg20
I00
sbsI119
g0
(g8
g2
Ntp7017
Rp7018
(dp7019
g12
Nsg13
(dp7020
sg19
Nsg20
I00
sbsI120
g0
(g8
g2
Ntp7021
Rp7022
(dp7023
g12
Nsg13
(dp7024
sg19
Nsg20
I00
sbsI121
g0
(g8
g2
Ntp7025
Rp7026
(dp7027
g12
Nsg13
(dp7028
sg19
Nsg20
I00
sbsI122
g0
(g8
g2
Ntp7029
Rp7030
(dp7031
g12
Nsg13
(dp7032
sg19
Nsg20
I00
sbsI123
g0
(g8
g2
Ntp7033
Rp7034
(dp7035
g12
Nsg13
(dp7036
sg19
Nsg20
I00
sbsI124
g0
(g8
g2
Ntp7037
Rp7038
(dp7039
g12
Nsg13
(dp7040
sg19
Nsg20
I00
sbsI125
g0
(g8
g2
Ntp7041
Rp7042
(dp7043
g12
Nsg13
(dp7044
sg19
Nsg20
I00
sbsI126
g0
(g8
g2
Ntp7045
Rp7046
(dp7047
g12
Nsg13
(dp7048
sg19
Nsg20
I00
sbsI127
g0
(g8
g2
Ntp7049
Rp7050
(dp7051
g12
Nsg13
(dp7052
sg19
Nsg20
I00
sbsI128
g0
(g8
g2
Ntp7053
Rp7054
(dp7055
g12
Nsg13
(dp7056
sg19
Nsg20
I00
sbsI129
g0
(g8
g2
Ntp7057
Rp7058
(dp7059
g12
Nsg13
(dp7060
sg19
Nsg20
I01
sbsI130
g0
(g8
g2
Ntp7061
Rp7062
(dp7063
g12
Nsg13
(dp7064
sg19
Nsg20
I00
sbsI131
g0
(g8
g2
Ntp7065
Rp7066
(dp7067
g12
Nsg13
(dp7068
sg19
Nsg20
I01
sbsI132
g0
(g8
g2
Ntp7069
Rp7070
(dp7071
g12
Nsg13
(dp7072
sg19
Nsg20
I00
sbsI133
g0
(g8
g2
Ntp7073
Rp7074
(dp7075
g12
Nsg13
(dp7076
sg19
Nsg20
I00
sbsI134
g0
(g8
g2
Ntp7077
Rp7078
(dp7079
g12
Nsg13
(dp7080
sg19
Nsg20
I00
sbsI135
g0
(g8
g2
Ntp7081
Rp7082
(dp7083
g12
Nsg13
(dp7084
sg19
Nsg20
I00
sbsI136
g0
(g8
g2
Ntp7085
Rp7086
(dp7087
g12
Nsg13
(dp7088
sg19
Nsg20
I00
sbsI137
g0
(g8
g2
Ntp7089
Rp7090
(dp7091
g12
Nsg13
(dp7092
sg19
Nsg20
I00
sbsI138
g0
(g8
g2
Ntp7093
Rp7094
(dp7095
g12
Nsg13
(dp7096
sg19
Nsg20
I00
sbsI139
g0
(g8
g2
Ntp7097
Rp7098
(dp7099
g12
Nsg13
(dp7100
sg19
Nsg20
I00
sbsI140
g0
(g8
g2
Ntp7101
Rp7102
(dp7103
g12
Nsg13
(dp7104
sg19
Nsg20
I00
sbsI141
g0
(g8
g2
Ntp7105
Rp7106
(dp7107
g12
Nsg13
(dp7108
sg19
Nsg20
I01
sbsI142
g0
(g8
g2
Ntp7109
Rp7110
(dp7111
g12
Nsg13
(dp7112
sg19
Nsg20
I01
sbsI144
g0
(g8
g2
Ntp7113
Rp7114
(dp7115
g12
Nsg13
(dp7116
sg19
Nsg20
I00
sbsI145
g0
(g8
g2
Ntp7117
Rp7118
(dp7119
g12
Nsg13
(dp7120
sg19
Nsg20
I00
sbsI146
g0
(g8
g2
Ntp7121
Rp7122
(dp7123
g12
Nsg13
(dp7124
sg19
Nsg20
I00
sbsI147
g0
(g8
g2
Ntp7125
Rp7126
(dp7127
g12
Nsg13
(dp7128
sg19
Nsg20
I00
sbsI148
g0
(g8
g2
Ntp7129
Rp7130
(dp7131
g12
Nsg13
(dp7132
sg19
Nsg20
I00
sbsI149
g0
(g8
g2
Ntp7133
Rp7134
(dp7135
g12
Nsg13
(dp7136
sg19
Nsg20
I00
sbsI150
g0
(g8
g2
Ntp7137
Rp7138
(dp7139
g12
Nsg13
(dp7140
sg19
Nsg20
I00
sbsI151
g0
(g8
g2
Ntp7141
Rp7142
(dp7143
g12
Nsg13
(dp7144
sg19
Nsg20
I00
sbsI152
g0
(g8
g2
Ntp7145
Rp7146
(dp7147
g12
Nsg13
(dp7148
sg19
Nsg20
I00
sbsI153
g0
(g8
g2
Ntp7149
Rp7150
(dp7151
g12
Nsg13
(dp7152
sg19
Nsg20
I00
sbsI154
g0
(g8
g2
Ntp7153
Rp7154
(dp7155
g12
Nsg13
(dp7156
sg19
Nsg20
I01
sbsI157
g0
(g8
g2
Ntp7157
Rp7158
(dp7159
g12
Nsg13
(dp7160
sg19
Nsg20
I00
sbsI160
g0
(g8
g2
Ntp7161
Rp7162
(dp7163
g12
Nsg13
(dp7164
sg19
Nsg20
I00
sbsI161
g0
(g8
g2
Ntp7165
Rp7166
(dp7167
g12
Nsg13
(dp7168
sg19
Nsg20
I00
sbsI162
g0
(g8
g2
Ntp7169
Rp7170
(dp7171
g12
Nsg13
(dp7172
sg19
Nsg20
I00
sbsI168
g0
(g8
g2
Ntp7173
Rp7174
(dp7175
g12
Nsg13
(dp7176
sg19
Nsg20
I00
sbsI169
g0
(g8
g2
Ntp7177
Rp7178
(dp7179
g12
Nsg13
(dp7180
sg19
Nsg20
I01
sbsI170
g0
(g8
g2
Ntp7181
Rp7182
(dp7183
g12
Nsg13
(dp7184
sg19
Nsg20
I01
sbsI172
g0
(g8
g2
Ntp7185
Rp7186
(dp7187
g12
Nsg13
(dp7188
sg19
Nsg20
I00
sbsI184
g0
(g8
g2
Ntp7189
Rp7190
(dp7191
g12
Nsg13
(dp7192
sg19
Nsg20
I00
sbsI189
g0
(g8
g2
Ntp7193
Rp7194
(dp7195
g12
Nsg13
(dp7196
sg19
Nsg20
I00
sbssg19
I36
sg20
Nsbag0
(g8
g2
Ntp7197
Rp7198
(dp7199
g12
I00
sg13
(dp7200
I0
g0
(g8
g2
Ntp7201
Rp7202
(dp7203
g12
Nsg13
(dp7204
sg19
Nsg20
I00
sbsI1
g0
(g8
g2
Ntp7205
Rp7206
(dp7207
g12
Nsg13
(dp7208
sg19
Nsg20
I01
sbsI2
g0
(g8
g2
Ntp7209
Rp7210
(dp7211
g12
Nsg13
(dp7212
sg19
Nsg20
I01
sbsI3
g0
(g8
g2
Ntp7213
Rp7214
(dp7215
g12
Nsg13
(dp7216
sg19
Nsg20
I01
sbsI4
g0
(g8
g2
Ntp7217
Rp7218
(dp7219
g12
Nsg13
(dp7220
sg19
Nsg20
I01
sbssg19
I37
sg20
Nsbag0
(g8
g2
Ntp7221
Rp7222
(dp7223
g12
I01
sg13
(dp7224
I0
g0
(g8
g2
Ntp7225
Rp7226
(dp7227
g12
Nsg13
(dp7228
sg19
Nsg20
I01
sbsI1
g0
(g8
g2
Ntp7229
Rp7230
(dp7231
g12
Nsg13
(dp7232
sg19
Nsg20
I01
sbsI2
g0
(g8
g2
Ntp7233
Rp7234
(dp7235
g12
Nsg13
(dp7236
sg19
Nsg20
I01
sbsI3
g0
(g8
g2
Ntp7237
Rp7238
(dp7239
g12
Nsg13
(dp7240
sg19
Nsg20
I01
sbsI4
g0
(g8
g2
Ntp7241
Rp7242
(dp7243
g12
Nsg13
(dp7244
sg19
Nsg20
I01
sbsI5
g0
(g8
g2
Ntp7245
Rp7246
(dp7247
g12
Nsg13
(dp7248
sg19
Nsg20
I00
sbsI6
g0
(g8
g2
Ntp7249
Rp7250
(dp7251
g12
Nsg13
(dp7252
sg19
Nsg20
I01
sbsI7
g0
(g8
g2
Ntp7253
Rp7254
(dp7255
g12
Nsg13
(dp7256
sg19
Nsg20
I01
sbsI8
g0
(g8
g2
Ntp7257
Rp7258
(dp7259
g12
Nsg13
(dp7260
sg19
Nsg20
I01
sbsI9
g0
(g8
g2
Ntp7261
Rp7262
(dp7263
g12
Nsg13
(dp7264
sg19
Nsg20
I01
sbsI10
g0
(g8
g2
Ntp7265
Rp7266
(dp7267
g12
Nsg13
(dp7268
sg19
Nsg20
I01
sbsI11
g0
(g8
g2
Ntp7269
Rp7270
(dp7271
g12
Nsg13
(dp7272
sg19
Nsg20
I00
sbsI12
g0
(g8
g2
Ntp7273
Rp7274
(dp7275
g12
Nsg13
(dp7276
sg19
Nsg20
I01
sbsI13
g0
(g8
g2
Ntp7277
Rp7278
(dp7279
g12
Nsg13
(dp7280
sg19
Nsg20
I01
sbsI14
g0
(g8
g2
Ntp7281
Rp7282
(dp7283
g12
Nsg13
(dp7284
sg19
Nsg20
I00
sbsI15
g0
(g8
g2
Ntp7285
Rp7286
(dp7287
g12
Nsg13
(dp7288
sg19
Nsg20
I01
sbsI16
g0
(g8
g2
Ntp7289
Rp7290
(dp7291
g12
Nsg13
(dp7292
sg19
Nsg20
I00
sbsI17
g0
(g8
g2
Ntp7293
Rp7294
(dp7295
g12
Nsg13
(dp7296
sg19
Nsg20
I01
sbsI18
g0
(g8
g2
Ntp7297
Rp7298
(dp7299
g12
Nsg13
(dp7300
sg19
Nsg20
I01
sbsI19
g0
(g8
g2
Ntp7301
Rp7302
(dp7303
g12
Nsg13
(dp7304
sg19
Nsg20
I01
sbsI20
g0
(g8
g2
Ntp7305
Rp7306
(dp7307
g12
Nsg13
(dp7308
sg19
Nsg20
I01
sbsI21
g0
(g8
g2
Ntp7309
Rp7310
(dp7311
g12
Nsg13
(dp7312
sg19
Nsg20
I01
sbsI22
g0
(g8
g2
Ntp7313
Rp7314
(dp7315
g12
Nsg13
(dp7316
sg19
Nsg20
I01
sbsI23
g0
(g8
g2
Ntp7317
Rp7318
(dp7319
g12
Nsg13
(dp7320
sg19
Nsg20
I01
sbsI24
g0
(g8
g2
Ntp7321
Rp7322
(dp7323
g12
Nsg13
(dp7324
sg19
Nsg20
I01
sbsI25
g0
(g8
g2
Ntp7325
Rp7326
(dp7327
g12
Nsg13
(dp7328
sg19
Nsg20
I01
sbsI26
g0
(g8
g2
Ntp7329
Rp7330
(dp7331
g12
Nsg13
(dp7332
sg19
Nsg20
I01
sbsI27
g0
(g8
g2
Ntp7333
Rp7334
(dp7335
g12
Nsg13
(dp7336
sg19
Nsg20
I01
sbsI28
g0
(g8
g2
Ntp7337
Rp7338
(dp7339
g12
Nsg13
(dp7340
sg19
Nsg20
I01
sbsI29
g0
(g8
g2
Ntp7341
Rp7342
(dp7343
g12
Nsg13
(dp7344
sg19
Nsg20
I01
sbsI30
g0
(g8
g2
Ntp7345
Rp7346
(dp7347
g12
Nsg13
(dp7348
sg19
Nsg20
I01
sbsI31
g0
(g8
g2
Ntp7349
Rp7350
(dp7351
g12
Nsg13
(dp7352
sg19
Nsg20
I01
sbsI32
g0
(g8
g2
Ntp7353
Rp7354
(dp7355
g12
Nsg13
(dp7356
sg19
Nsg20
I01
sbsI33
g0
(g8
g2
Ntp7357
Rp7358
(dp7359
g12
Nsg13
(dp7360
sg19
Nsg20
I01
sbsI34
g0
(g8
g2
Ntp7361
Rp7362
(dp7363
g12
Nsg13
(dp7364
sg19
Nsg20
I01
sbsI35
g0
(g8
g2
Ntp7365
Rp7366
(dp7367
g12
Nsg13
(dp7368
sg19
Nsg20
I01
sbsI36
g0
(g8
g2
Ntp7369
Rp7370
(dp7371
g12
Nsg13
(dp7372
sg19
Nsg20
I01
sbsI37
g0
(g8
g2
Ntp7373
Rp7374
(dp7375
g12
Nsg13
(dp7376
sg19
Nsg20
I01
sbsI38
g0
(g8
g2
Ntp7377
Rp7378
(dp7379
g12
Nsg13
(dp7380
sg19
Nsg20
I01
sbsI39
g0
(g8
g2
Ntp7381
Rp7382
(dp7383
g12
Nsg13
(dp7384
sg19
Nsg20
I01
sbsI40
g0
(g8
g2
Ntp7385
Rp7386
(dp7387
g12
Nsg13
(dp7388
sg19
Nsg20
I01
sbsI41
g0
(g8
g2
Ntp7389
Rp7390
(dp7391
g12
Nsg13
(dp7392
sg19
Nsg20
I01
sbsI42
g0
(g8
g2
Ntp7393
Rp7394
(dp7395
g12
Nsg13
(dp7396
sg19
Nsg20
I01
sbsI43
g0
(g8
g2
Ntp7397
Rp7398
(dp7399
g12
Nsg13
(dp7400
sg19
Nsg20
I01
sbsI44
g0
(g8
g2
Ntp7401
Rp7402
(dp7403
g12
Nsg13
(dp7404
sg19
Nsg20
I01
sbsI45
g0
(g8
g2
Ntp7405
Rp7406
(dp7407
g12
Nsg13
(dp7408
sg19
Nsg20
I01
sbsI46
g0
(g8
g2
Ntp7409
Rp7410
(dp7411
g12
Nsg13
(dp7412
sg19
Nsg20
I01
sbsI47
g0
(g8
g2
Ntp7413
Rp7414
(dp7415
g12
Nsg13
(dp7416
sg19
Nsg20
I01
sbsI48
g0
(g8
g2
Ntp7417
Rp7418
(dp7419
g12
Nsg13
(dp7420
sg19
Nsg20
I01
sbsI49
g0
(g8
g2
Ntp7421
Rp7422
(dp7423
g12
Nsg13
(dp7424
sg19
Nsg20
I01
sbsI50
g0
(g8
g2
Ntp7425
Rp7426
(dp7427
g12
Nsg13
(dp7428
sg19
Nsg20
I01
sbsI51
g0
(g8
g2
Ntp7429
Rp7430
(dp7431
g12
Nsg13
(dp7432
sg19
Nsg20
I01
sbsI52
g0
(g8
g2
Ntp7433
Rp7434
(dp7435
g12
Nsg13
(dp7436
sg19
Nsg20
I01
sbsI53
g0
(g8
g2
Ntp7437
Rp7438
(dp7439
g12
Nsg13
(dp7440
sg19
Nsg20
I01
sbsI54
g0
(g8
g2
Ntp7441
Rp7442
(dp7443
g12
Nsg13
(dp7444
sg19
Nsg20
I01
sbsI55
g0
(g8
g2
Ntp7445
Rp7446
(dp7447
g12
Nsg13
(dp7448
sg19
Nsg20
I01
sbsI56
g0
(g8
g2
Ntp7449
Rp7450
(dp7451
g12
Nsg13
(dp7452
sg19
Nsg20
I01
sbsI57
g0
(g8
g2
Ntp7453
Rp7454
(dp7455
g12
Nsg13
(dp7456
sg19
Nsg20
I01
sbsI58
g0
(g8
g2
Ntp7457
Rp7458
(dp7459
g12
Nsg13
(dp7460
sg19
Nsg20
I01
sbsI59
g0
(g8
g2
Ntp7461
Rp7462
(dp7463
g12
Nsg13
(dp7464
sg19
Nsg20
I01
sbsI60
g0
(g8
g2
Ntp7465
Rp7466
(dp7467
g12
Nsg13
(dp7468
sg19
Nsg20
I01
sbsI61
g0
(g8
g2
Ntp7469
Rp7470
(dp7471
g12
Nsg13
(dp7472
sg19
Nsg20
I01
sbsI62
g0
(g8
g2
Ntp7473
Rp7474
(dp7475
g12
Nsg13
(dp7476
sg19
Nsg20
I01
sbsI63
g0
(g8
g2
Ntp7477
Rp7478
(dp7479
g12
Nsg13
(dp7480
sg19
Nsg20
I01
sbsI64
g0
(g8
g2
Ntp7481
Rp7482
(dp7483
g12
Nsg13
(dp7484
sg19
Nsg20
I01
sbsI65
g0
(g8
g2
Ntp7485
Rp7486
(dp7487
g12
Nsg13
(dp7488
sg19
Nsg20
I01
sbsI66
g0
(g8
g2
Ntp7489
Rp7490
(dp7491
g12
Nsg13
(dp7492
sg19
Nsg20
I01
sbsI67
g0
(g8
g2
Ntp7493
Rp7494
(dp7495
g12
Nsg13
(dp7496
sg19
Nsg20
I01
sbsI68
g0
(g8
g2
Ntp7497
Rp7498
(dp7499
g12
Nsg13
(dp7500
sg19
Nsg20
I01
sbsI69
g0
(g8
g2
Ntp7501
Rp7502
(dp7503
g12
Nsg13
(dp7504
sg19
Nsg20
I01
sbsI70
g0
(g8
g2
Ntp7505
Rp7506
(dp7507
g12
Nsg13
(dp7508
sg19
Nsg20
I00
sbsI71
g0
(g8
g2
Ntp7509
Rp7510
(dp7511
g12
Nsg13
(dp7512
sg19
Nsg20
I01
sbsI72
g0
(g8
g2
Ntp7513
Rp7514
(dp7515
g12
Nsg13
(dp7516
sg19
Nsg20
I01
sbsI73
g0
(g8
g2
Ntp7517
Rp7518
(dp7519
g12
Nsg13
(dp7520
sg19
Nsg20
I01
sbsI74
g0
(g8
g2
Ntp7521
Rp7522
(dp7523
g12
Nsg13
(dp7524
sg19
Nsg20
I01
sbsI75
g0
(g8
g2
Ntp7525
Rp7526
(dp7527
g12
Nsg13
(dp7528
sg19
Nsg20
I01
sbsI76
g0
(g8
g2
Ntp7529
Rp7530
(dp7531
g12
Nsg13
(dp7532
sg19
Nsg20
I01
sbsI77
g0
(g8
g2
Ntp7533
Rp7534
(dp7535
g12
Nsg13
(dp7536
sg19
Nsg20
I01
sbsI78
g0
(g8
g2
Ntp7537
Rp7538
(dp7539
g12
Nsg13
(dp7540
sg19
Nsg20
I01
sbsI79
g0
(g8
g2
Ntp7541
Rp7542
(dp7543
g12
Nsg13
(dp7544
sg19
Nsg20
I01
sbsI80
g0
(g8
g2
Ntp7545
Rp7546
(dp7547
g12
Nsg13
(dp7548
sg19
Nsg20
I01
sbsI81
g0
(g8
g2
Ntp7549
Rp7550
(dp7551
g12
Nsg13
(dp7552
sg19
Nsg20
I01
sbsI82
g0
(g8
g2
Ntp7553
Rp7554
(dp7555
g12
Nsg13
(dp7556
sg19
Nsg20
I01
sbsI83
g0
(g8
g2
Ntp7557
Rp7558
(dp7559
g12
Nsg13
(dp7560
sg19
Nsg20
I01
sbsI84
g0
(g8
g2
Ntp7561
Rp7562
(dp7563
g12
Nsg13
(dp7564
sg19
Nsg20
I01
sbsI85
g0
(g8
g2
Ntp7565
Rp7566
(dp7567
g12
Nsg13
(dp7568
sg19
Nsg20
I01
sbsI86
g0
(g8
g2
Ntp7569
Rp7570
(dp7571
g12
Nsg13
(dp7572
sg19
Nsg20
I01
sbsI87
g0
(g8
g2
Ntp7573
Rp7574
(dp7575
g12
Nsg13
(dp7576
sg19
Nsg20
I01
sbsI88
g0
(g8
g2
Ntp7577
Rp7578
(dp7579
g12
Nsg13
(dp7580
sg19
Nsg20
I01
sbsI89
g0
(g8
g2
Ntp7581
Rp7582
(dp7583
g12
Nsg13
(dp7584
sg19
Nsg20
I01
sbsI90
g0
(g8
g2
Ntp7585
Rp7586
(dp7587
g12
Nsg13
(dp7588
sg19
Nsg20
I01
sbsI91
g0
(g8
g2
Ntp7589
Rp7590
(dp7591
g12
Nsg13
(dp7592
sg19
Nsg20
I01
sbsI92
g0
(g8
g2
Ntp7593
Rp7594
(dp7595
g12
Nsg13
(dp7596
sg19
Nsg20
I00
sbsI93
g0
(g8
g2
Ntp7597
Rp7598
(dp7599
g12
Nsg13
(dp7600
sg19
Nsg20
I01
sbsI94
g0
(g8
g2
Ntp7601
Rp7602
(dp7603
g12
Nsg13
(dp7604
sg19
Nsg20
I01
sbsI95
g0
(g8
g2
Ntp7605
Rp7606
(dp7607
g12
Nsg13
(dp7608
sg19
Nsg20
I01
sbsI96
g0
(g8
g2
Ntp7609
Rp7610
(dp7611
g12
Nsg13
(dp7612
sg19
Nsg20
I01
sbsI97
g0
(g8
g2
Ntp7613
Rp7614
(dp7615
g12
Nsg13
(dp7616
sg19
Nsg20
I01
sbsI98
g0
(g8
g2
Ntp7617
Rp7618
(dp7619
g12
Nsg13
(dp7620
sg19
Nsg20
I01
sbsI99
g0
(g8
g2
Ntp7621
Rp7622
(dp7623
g12
Nsg13
(dp7624
sg19
Nsg20
I01
sbsI100
g0
(g8
g2
Ntp7625
Rp7626
(dp7627
g12
Nsg13
(dp7628
sg19
Nsg20
I00
sbsI101
g0
(g8
g2
Ntp7629
Rp7630
(dp7631
g12
Nsg13
(dp7632
sg19
Nsg20
I01
sbsI102
g0
(g8
g2
Ntp7633
Rp7634
(dp7635
g12
Nsg13
(dp7636
sg19
Nsg20
I00
sbsI103
g0
(g8
g2
Ntp7637
Rp7638
(dp7639
g12
Nsg13
(dp7640
sg19
Nsg20
I00
sbsI104
g0
(g8
g2
Ntp7641
Rp7642
(dp7643
g12
Nsg13
(dp7644
sg19
Nsg20
I01
sbsI105
g0
(g8
g2
Ntp7645
Rp7646
(dp7647
g12
Nsg13
(dp7648
sg19
Nsg20
I01
sbsI106
g0
(g8
g2
Ntp7649
Rp7650
(dp7651
g12
Nsg13
(dp7652
sg19
Nsg20
I01
sbsI107
g0
(g8
g2
Ntp7653
Rp7654
(dp7655
g12
Nsg13
(dp7656
sg19
Nsg20
I00
sbsI108
g0
(g8
g2
Ntp7657
Rp7658
(dp7659
g12
Nsg13
(dp7660
sg19
Nsg20
I01
sbsI109
g0
(g8
g2
Ntp7661
Rp7662
(dp7663
g12
Nsg13
(dp7664
sg19
Nsg20
I01
sbsI110
g0
(g8
g2
Ntp7665
Rp7666
(dp7667
g12
Nsg13
(dp7668
sg19
Nsg20
I01
sbsI111
g0
(g8
g2
Ntp7669
Rp7670
(dp7671
g12
Nsg13
(dp7672
sg19
Nsg20
I01
sbsI112
g0
(g8
g2
Ntp7673
Rp7674
(dp7675
g12
Nsg13
(dp7676
sg19
Nsg20
I01
sbsI113
g0
(g8
g2
Ntp7677
Rp7678
(dp7679
g12
Nsg13
(dp7680
sg19
Nsg20
I00
sbsI114
g0
(g8
g2
Ntp7681
Rp7682
(dp7683
g12
Nsg13
(dp7684
sg19
Nsg20
I01
sbsI115
g0
(g8
g2
Ntp7685
Rp7686
(dp7687
g12
Nsg13
(dp7688
sg19
Nsg20
I00
sbsI116
g0
(g8
g2
Ntp7689
Rp7690
(dp7691
g12
Nsg13
(dp7692
sg19
Nsg20
I00
sbsI117
g0
(g8
g2
Ntp7693
Rp7694
(dp7695
g12
Nsg13
(dp7696
sg19
Nsg20
I01
sbsI118
g0
(g8
g2
Ntp7697
Rp7698
(dp7699
g12
Nsg13
(dp7700
sg19
Nsg20
I00
sbsI119
g0
(g8
g2
Ntp7701
Rp7702
(dp7703
g12
Nsg13
(dp7704
sg19
Nsg20
I01
sbsI120
g0
(g8
g2
Ntp7705
Rp7706
(dp7707
g12
Nsg13
(dp7708
sg19
Nsg20
I01
sbsI121
g0
(g8
g2
Ntp7709
Rp7710
(dp7711
g12
Nsg13
(dp7712
sg19
Nsg20
I00
sbsI122
g0
(g8
g2
Ntp7713
Rp7714
(dp7715
g12
Nsg13
(dp7716
sg19
Nsg20
I01
sbsI123
g0
(g8
g2
Ntp7717
Rp7718
(dp7719
g12
Nsg13
(dp7720
sg19
Nsg20
I00
sbsI124
g0
(g8
g2
Ntp7721
Rp7722
(dp7723
g12
Nsg13
(dp7724
sg19
Nsg20
I00
sbsI125
g0
(g8
g2
Ntp7725
Rp7726
(dp7727
g12
Nsg13
(dp7728
sg19
Nsg20
I00
sbsI126
g0
(g8
g2
Ntp7729
Rp7730
(dp7731
g12
Nsg13
(dp7732
sg19
Nsg20
I00
sbsI127
g0
(g8
g2
Ntp7733
Rp7734
(dp7735
g12
Nsg13
(dp7736
sg19
Nsg20
I00
sbsI128
g0
(g8
g2
Ntp7737
Rp7738
(dp7739
g12
Nsg13
(dp7740
sg19
Nsg20
I00
sbsI129
g0
(g8
g2
Ntp7741
Rp7742
(dp7743
g12
Nsg13
(dp7744
sg19
Nsg20
I01
sbsI130
g0
(g8
g2
Ntp7745
Rp7746
(dp7747
g12
Nsg13
(dp7748
sg19
Nsg20
I01
sbsI131
g0
(g8
g2
Ntp7749
Rp7750
(dp7751
g12
Nsg13
(dp7752
sg19
Nsg20
I01
sbsI132
g0
(g8
g2
Ntp7753
Rp7754
(dp7755
g12
Nsg13
(dp7756
sg19
Nsg20
I00
sbsI133
g0
(g8
g2
Ntp7757
Rp7758
(dp7759
g12
Nsg13
(dp7760
sg19
Nsg20
I00
sbsI134
g0
(g8
g2
Ntp7761
Rp7762
(dp7763
g12
Nsg13
(dp7764
sg19
Nsg20
I00
sbsI135
g0
(g8
g2
Ntp7765
Rp7766
(dp7767
g12
Nsg13
(dp7768
sg19
Nsg20
I00
sbsI136
g0
(g8
g2
Ntp7769
Rp7770
(dp7771
g12
Nsg13
(dp7772
sg19
Nsg20
I00
sbsI137
g0
(g8
g2
Ntp7773
Rp7774
(dp7775
g12
Nsg13
(dp7776
sg19
Nsg20
I00
sbsI138
g0
(g8
g2
Ntp7777
Rp7778
(dp7779
g12
Nsg13
(dp7780
sg19
Nsg20
I00
sbsI139
g0
(g8
g2
Ntp7781
Rp7782
(dp7783
g12
Nsg13
(dp7784
sg19
Nsg20
I00
sbsI140
g0
(g8
g2
Ntp7785
Rp7786
(dp7787
g12
Nsg13
(dp7788
sg19
Nsg20
I00
sbsI141
g0
(g8
g2
Ntp7789
Rp7790
(dp7791
g12
Nsg13
(dp7792
sg19
Nsg20
I01
sbsI142
g0
(g8
g2
Ntp7793
Rp7794
(dp7795
g12
Nsg13
(dp7796
sg19
Nsg20
I01
sbsI144
g0
(g8
g2
Ntp7797
Rp7798
(dp7799
g12
Nsg13
(dp7800
sg19
Nsg20
I00
sbsI145
g0
(g8
g2
Ntp7801
Rp7802
(dp7803
g12
Nsg13
(dp7804
sg19
Nsg20
I01
sbsI146
g0
(g8
g2
Ntp7805
Rp7806
(dp7807
g12
Nsg13
(dp7808
sg19
Nsg20
I00
sbsI147
g0
(g8
g2
Ntp7809
Rp7810
(dp7811
g12
Nsg13
(dp7812
sg19
Nsg20
I00
sbsI148
g0
(g8
g2
Ntp7813
Rp7814
(dp7815
g12
Nsg13
(dp7816
sg19
Nsg20
I00
sbsI149
g0
(g8
g2
Ntp7817
Rp7818
(dp7819
g12
Nsg13
(dp7820
sg19
Nsg20
I00
sbsI150
g0
(g8
g2
Ntp7821
Rp7822
(dp7823
g12
Nsg13
(dp7824
sg19
Nsg20
I00
sbsI151
g0
(g8
g2
Ntp7825
Rp7826
(dp7827
g12
Nsg13
(dp7828
sg19
Nsg20
I00
sbsI152
g0
(g8
g2
Ntp7829
Rp7830
(dp7831
g12
Nsg13
(dp7832
sg19
Nsg20
I00
sbsI153
g0
(g8
g2
Ntp7833
Rp7834
(dp7835
g12
Nsg13
(dp7836
sg19
Nsg20
I00
sbsI154
g0
(g8
g2
Ntp7837
Rp7838
(dp7839
g12
Nsg13
(dp7840
sg19
Nsg20
I01
sbsI157
g0
(g8
g2
Ntp7841
Rp7842
(dp7843
g12
Nsg13
(dp7844
sg19
Nsg20
I00
sbsI160
g0
(g8
g2
Ntp7845
Rp7846
(dp7847
g12
Nsg13
(dp7848
sg19
Nsg20
I00
sbsI161
g0
(g8
g2
Ntp7849
Rp7850
(dp7851
g12
Nsg13
(dp7852
sg19
Nsg20
I00
sbsI162
g0
(g8
g2
Ntp7853
Rp7854
(dp7855
g12
Nsg13
(dp7856
sg19
Nsg20
I00
sbsI168
g0
(g8
g2
Ntp7857
Rp7858
(dp7859
g12
Nsg13
(dp7860
sg19
Nsg20
I00
sbsI169
g0
(g8
g2
Ntp7861
Rp7862
(dp7863
g12
Nsg13
(dp7864
sg19
Nsg20
I01
sbsI170
g0
(g8
g2
Ntp7865
Rp7866
(dp7867
g12
Nsg13
(dp7868
sg19
Nsg20
I01
sbsI172
g0
(g8
g2
Ntp7869
Rp7870
(dp7871
g12
Nsg13
(dp7872
sg19
Nsg20
I00
sbsI184
g0
(g8
g2
Ntp7873
Rp7874
(dp7875
g12
Nsg13
(dp7876
sg19
Nsg20
I00
sbsI189
g0
(g8
g2
Ntp7877
Rp7878
(dp7879
g12
Nsg13
(dp7880
sg19
Nsg20
I00
sbssg19
I36
sg20
Nsbag0
(g8
g2
Ntp7881
Rp7882
(dp7883
g12
I00
sg13
(dp7884
I0
g0
(g8
g2
Ntp7885
Rp7886
(dp7887
g12
Nsg13
(dp7888
sg19
Nsg20
I00
sbsI1
g0
(g8
g2
Ntp7889
Rp7890
(dp7891
g12
Nsg13
(dp7892
sg19
Nsg20
I01
sbsI2
g0
(g8
g2
Ntp7893
Rp7894
(dp7895
g12
Nsg13
(dp7896
sg19
Nsg20
I00
sbsI3
g0
(g8
g2
Ntp7897
Rp7898
(dp7899
g12
Nsg13
(dp7900
sg19
Nsg20
I00
sbsI4
g0
(g8
g2
Ntp7901
Rp7902
(dp7903
g12
Nsg13
(dp7904
sg19
Nsg20
I00
sbsI5
g0
(g8
g2
Ntp7905
Rp7906
(dp7907
g12
Nsg13
(dp7908
sg19
Nsg20
I01
sbsI6
g0
(g8
g2
Ntp7909
Rp7910
(dp7911
g12
Nsg13
(dp7912
sg19
Nsg20
I00
sbsI7
g0
(g8
g2
Ntp7913
Rp7914
(dp7915
g12
Nsg13
(dp7916
sg19
Nsg20
I00
sbsI8
g0
(g8
g2
Ntp7917
Rp7918
(dp7919
g12
Nsg13
(dp7920
sg19
Nsg20
I00
sbsI9
g0
(g8
g2
Ntp7921
Rp7922
(dp7923
g12
Nsg13
(dp7924
sg19
Nsg20
I00
sbsI10
g0
(g8
g2
Ntp7925
Rp7926
(dp7927
g12
Nsg13
(dp7928
sg19
Nsg20
I00
sbsI11
g0
(g8
g2
Ntp7929
Rp7930
(dp7931
g12
Nsg13
(dp7932
sg19
Nsg20
I01
sbsI12
g0
(g8
g2
Ntp7933
Rp7934
(dp7935
g12
Nsg13
(dp7936
sg19
Nsg20
I01
sbsI13
g0
(g8
g2
Ntp7937
Rp7938
(dp7939
g12
Nsg13
(dp7940
sg19
Nsg20
I00
sbsI14
g0
(g8
g2
Ntp7941
Rp7942
(dp7943
g12
Nsg13
(dp7944
sg19
Nsg20
I01
sbsI15
g0
(g8
g2
Ntp7945
Rp7946
(dp7947
g12
Nsg13
(dp7948
sg19
Nsg20
I00
sbsI16
g0
(g8
g2
Ntp7949
Rp7950
(dp7951
g12
Nsg13
(dp7952
sg19
Nsg20
I01
sbsI17
g0
(g8
g2
Ntp7953
Rp7954
(dp7955
g12
Nsg13
(dp7956
sg19
Nsg20
I01
sbsI18
g0
(g8
g2
Ntp7957
Rp7958
(dp7959
g12
Nsg13
(dp7960
sg19
Nsg20
I01
sbsI19
g0
(g8
g2
Ntp7961
Rp7962
(dp7963
g12
Nsg13
(dp7964
sg19
Nsg20
I00
sbsI20
g0
(g8
g2
Ntp7965
Rp7966
(dp7967
g12
Nsg13
(dp7968
sg19
Nsg20
I00
sbsI21
g0
(g8
g2
Ntp7969
Rp7970
(dp7971
g12
Nsg13
(dp7972
sg19
Nsg20
I01
sbsI22
g0
(g8
g2
Ntp7973
Rp7974
(dp7975
g12
Nsg13
(dp7976
sg19
Nsg20
I00
sbsI23
g0
(g8
g2
Ntp7977
Rp7978
(dp7979
g12
Nsg13
(dp7980
sg19
Nsg20
I01
sbsI24
g0
(g8
g2
Ntp7981
Rp7982
(dp7983
g12
Nsg13
(dp7984
sg19
Nsg20
I00
sbsI25
g0
(g8
g2
Ntp7985
Rp7986
(dp7987
g12
Nsg13
(dp7988
sg19
Nsg20
I01
sbsI26
g0
(g8
g2
Ntp7989
Rp7990
(dp7991
g12
Nsg13
(dp7992
sg19
Nsg20
I00
sbsI27
g0
(g8
g2
Ntp7993
Rp7994
(dp7995
g12
Nsg13
(dp7996
sg19
Nsg20
I00
sbsI28
g0
(g8
g2
Ntp7997
Rp7998
(dp7999
g12
Nsg13
(dp8000
sg19
Nsg20
I01
sbsI29
g0
(g8
g2
Ntp8001
Rp8002
(dp8003
g12
Nsg13
(dp8004
sg19
Nsg20
I00
sbsI30
g0
(g8
g2
Ntp8005
Rp8006
(dp8007
g12
Nsg13
(dp8008
sg19
Nsg20
I00
sbsI31
g0
(g8
g2
Ntp8009
Rp8010
(dp8011
g12
Nsg13
(dp8012
sg19
Nsg20
I00
sbsI32
g0
(g8
g2
Ntp8013
Rp8014
(dp8015
g12
Nsg13
(dp8016
sg19
Nsg20
I01
sbsI33
g0
(g8
g2
Ntp8017
Rp8018
(dp8019
g12
Nsg13
(dp8020
sg19
Nsg20
I01
sbsI34
g0
(g8
g2
Ntp8021
Rp8022
(dp8023
g12
Nsg13
(dp8024
sg19
Nsg20
I01
sbsI35
g0
(g8
g2
Ntp8025
Rp8026
(dp8027
g12
Nsg13
(dp8028
sg19
Nsg20
I00
sbsI36
g0
(g8
g2
Ntp8029
Rp8030
(dp8031
g12
Nsg13
(dp8032
sg19
Nsg20
I01
sbsI37
g0
(g8
g2
Ntp8033
Rp8034
(dp8035
g12
Nsg13
(dp8036
sg19
Nsg20
I01
sbsI38
g0
(g8
g2
Ntp8037
Rp8038
(dp8039
g12
Nsg13
(dp8040
sg19
Nsg20
I01
sbsI39
g0
(g8
g2
Ntp8041
Rp8042
(dp8043
g12
Nsg13
(dp8044
sg19
Nsg20
I00
sbsI40
g0
(g8
g2
Ntp8045
Rp8046
(dp8047
g12
Nsg13
(dp8048
sg19
Nsg20
I01
sbsI41
g0
(g8
g2
Ntp8049
Rp8050
(dp8051
g12
Nsg13
(dp8052
sg19
Nsg20
I00
sbsI42
g0
(g8
g2
Ntp8053
Rp8054
(dp8055
g12
Nsg13
(dp8056
sg19
Nsg20
I01
sbsI43
g0
(g8
g2
Ntp8057
Rp8058
(dp8059
g12
Nsg13
(dp8060
sg19
Nsg20
I00
sbsI44
g0
(g8
g2
Ntp8061
Rp8062
(dp8063
g12
Nsg13
(dp8064
sg19
Nsg20
I00
sbsI45
g0
(g8
g2
Ntp8065
Rp8066
(dp8067
g12
Nsg13
(dp8068
sg19
Nsg20
I00
sbsI46
g0
(g8
g2
Ntp8069
Rp8070
(dp8071
g12
Nsg13
(dp8072
sg19
Nsg20
I00
sbsI47
g0
(g8
g2
Ntp8073
Rp8074
(dp8075
g12
Nsg13
(dp8076
sg19
Nsg20
I00
sbsI48
g0
(g8
g2
Ntp8077
Rp8078
(dp8079
g12
Nsg13
(dp8080
sg19
Nsg20
I01
sbsI49
g0
(g8
g2
Ntp8081
Rp8082
(dp8083
g12
Nsg13
(dp8084
sg19
Nsg20
I01
sbsI50
g0
(g8
g2
Ntp8085
Rp8086
(dp8087
g12
Nsg13
(dp8088
sg19
Nsg20
I00
sbsI51
g0
(g8
g2
Ntp8089
Rp8090
(dp8091
g12
Nsg13
(dp8092
sg19
Nsg20
I00
sbsI52
g0
(g8
g2
Ntp8093
Rp8094
(dp8095
g12
Nsg13
(dp8096
sg19
Nsg20
I00
sbsI53
g0
(g8
g2
Ntp8097
Rp8098
(dp8099
g12
Nsg13
(dp8100
sg19
Nsg20
I00
sbsI54
g0
(g8
g2
Ntp8101
Rp8102
(dp8103
g12
Nsg13
(dp8104
sg19
Nsg20
I00
sbsI55
g0
(g8
g2
Ntp8105
Rp8106
(dp8107
g12
Nsg13
(dp8108
sg19
Nsg20
I01
sbsI56
g0
(g8
g2
Ntp8109
Rp8110
(dp8111
g12
Nsg13
(dp8112
sg19
Nsg20
I00
sbsI57
g0
(g8
g2
Ntp8113
Rp8114
(dp8115
g12
Nsg13
(dp8116
sg19
Nsg20
I00
sbsI58
g0
(g8
g2
Ntp8117
Rp8118
(dp8119
g12
Nsg13
(dp8120
sg19
Nsg20
I01
sbsI59
g0
(g8
g2
Ntp8121
Rp8122
(dp8123
g12
Nsg13
(dp8124
sg19
Nsg20
I00
sbsI60
g0
(g8
g2
Ntp8125
Rp8126
(dp8127
g12
Nsg13
(dp8128
sg19
Nsg20
I01
sbsI61
g0
(g8
g2
Ntp8129
Rp8130
(dp8131
g12
Nsg13
(dp8132
sg19
Nsg20
I00
sbsI62
g0
(g8
g2
Ntp8133
Rp8134
(dp8135
g12
Nsg13
(dp8136
sg19
Nsg20
I00
sbsI63
g0
(g8
g2
Ntp8137
Rp8138
(dp8139
g12
Nsg13
(dp8140
sg19
Nsg20
I00
sbsI64
g0
(g8
g2
Ntp8141
Rp8142
(dp8143
g12
Nsg13
(dp8144
sg19
Nsg20
I01
sbsI65
g0
(g8
g2
Ntp8145
Rp8146
(dp8147
g12
Nsg13
(dp8148
sg19
Nsg20
I00
sbsI66
g0
(g8
g2
Ntp8149
Rp8150
(dp8151
g12
Nsg13
(dp8152
sg19
Nsg20
I01
sbsI67
g0
(g8
g2
Ntp8153
Rp8154
(dp8155
g12
Nsg13
(dp8156
sg19
Nsg20
I00
sbsI68
g0
(g8
g2
Ntp8157
Rp8158
(dp8159
g12
Nsg13
(dp8160
sg19
Nsg20
I00
sbsI69
g0
(g8
g2
Ntp8161
Rp8162
(dp8163
g12
Nsg13
(dp8164
sg19
Nsg20
I01
sbsI70
g0
(g8
g2
Ntp8165
Rp8166
(dp8167
g12
Nsg13
(dp8168
sg19
Nsg20
I01
sbsI71
g0
(g8
g2
Ntp8169
Rp8170
(dp8171
g12
Nsg13
(dp8172
sg19
Nsg20
I00
sbsI72
g0
(g8
g2
Ntp8173
Rp8174
(dp8175
g12
Nsg13
(dp8176
sg19
Nsg20
I01
sbsI73
g0
(g8
g2
Ntp8177
Rp8178
(dp8179
g12
Nsg13
(dp8180
sg19
Nsg20
I00
sbsI74
g0
(g8
g2
Ntp8181
Rp8182
(dp8183
g12
Nsg13
(dp8184
sg19
Nsg20
I00
sbsI75
g0
(g8
g2
Ntp8185
Rp8186
(dp8187
g12
Nsg13
(dp8188
sg19
Nsg20
I01
sbsI76
g0
(g8
g2
Ntp8189
Rp8190
(dp8191
g12
Nsg13
(dp8192
sg19
Nsg20
I01
sbsI77
g0
(g8
g2
Ntp8193
Rp8194
(dp8195
g12
Nsg13
(dp8196
sg19
Nsg20
I00
sbsI78
g0
(g8
g2
Ntp8197
Rp8198
(dp8199
g12
Nsg13
(dp8200
sg19
Nsg20
I00
sbsI79
g0
(g8
g2
Ntp8201
Rp8202
(dp8203
g12
Nsg13
(dp8204
sg19
Nsg20
I00
sbsI80
g0
(g8
g2
Ntp8205
Rp8206
(dp8207
g12
Nsg13
(dp8208
sg19
Nsg20
I00
sbsI81
g0
(g8
g2
Ntp8209
Rp8210
(dp8211
g12
Nsg13
(dp8212
sg19
Nsg20
I01
sbsI82
g0
(g8
g2
Ntp8213
Rp8214
(dp8215
g12
Nsg13
(dp8216
sg19
Nsg20
I00
sbsI83
g0
(g8
g2
Ntp8217
Rp8218
(dp8219
g12
Nsg13
(dp8220
sg19
Nsg20
I00
sbsI84
g0
(g8
g2
Ntp8221
Rp8222
(dp8223
g12
Nsg13
(dp8224
sg19
Nsg20
I01
sbsI85
g0
(g8
g2
Ntp8225
Rp8226
(dp8227
g12
Nsg13
(dp8228
sg19
Nsg20
I00
sbsI86
g0
(g8
g2
Ntp8229
Rp8230
(dp8231
g12
Nsg13
(dp8232
sg19
Nsg20
I00
sbsI87
g0
(g8
g2
Ntp8233
Rp8234
(dp8235
g12
Nsg13
(dp8236
sg19
Nsg20
I00
sbsI88
g0
(g8
g2
Ntp8237
Rp8238
(dp8239
g12
Nsg13
(dp8240
sg19
Nsg20
I01
sbsI89
g0
(g8
g2
Ntp8241
Rp8242
(dp8243
g12
Nsg13
(dp8244
sg19
Nsg20
I00
sbsI90
g0
(g8
g2
Ntp8245
Rp8246
(dp8247
g12
Nsg13
(dp8248
sg19
Nsg20
I00
sbsI91
g0
(g8
g2
Ntp8249
Rp8250
(dp8251
g12
Nsg13
(dp8252
sg19
Nsg20
I00
sbsI92
g0
(g8
g2
Ntp8253
Rp8254
(dp8255
g12
Nsg13
(dp8256
sg19
Nsg20
I00
sbsI93
g0
(g8
g2
Ntp8257
Rp8258
(dp8259
g12
Nsg13
(dp8260
sg19
Nsg20
I01
sbsI94
g0
(g8
g2
Ntp8261
Rp8262
(dp8263
g12
Nsg13
(dp8264
sg19
Nsg20
I00
sbsI95
g0
(g8
g2
Ntp8265
Rp8266
(dp8267
g12
Nsg13
(dp8268
sg19
Nsg20
I01
sbsI96
g0
(g8
g2
Ntp8269
Rp8270
(dp8271
g12
Nsg13
(dp8272
sg19
Nsg20
I01
sbsI97
g0
(g8
g2
Ntp8273
Rp8274
(dp8275
g12
Nsg13
(dp8276
sg19
Nsg20
I00
sbsI98
g0
(g8
g2
Ntp8277
Rp8278
(dp8279
g12
Nsg13
(dp8280
sg19
Nsg20
I01
sbsI99
g0
(g8
g2
Ntp8281
Rp8282
(dp8283
g12
Nsg13
(dp8284
sg19
Nsg20
I00
sbsI100
g0
(g8
g2
Ntp8285
Rp8286
(dp8287
g12
Nsg13
(dp8288
sg19
Nsg20
I00
sbsI101
g0
(g8
g2
Ntp8289
Rp8290
(dp8291
g12
Nsg13
(dp8292
sg19
Nsg20
I01
sbsI102
g0
(g8
g2
Ntp8293
Rp8294
(dp8295
g12
Nsg13
(dp8296
sg19
Nsg20
I00
sbsI103
g0
(g8
g2
Ntp8297
Rp8298
(dp8299
g12
Nsg13
(dp8300
sg19
Nsg20
I00
sbsI104
g0
(g8
g2
Ntp8301
Rp8302
(dp8303
g12
Nsg13
(dp8304
sg19
Nsg20
I01
sbsI105
g0
(g8
g2
Ntp8305
Rp8306
(dp8307
g12
Nsg13
(dp8308
sg19
Nsg20
I01
sbsI106
g0
(g8
g2
Ntp8309
Rp8310
(dp8311
g12
Nsg13
(dp8312
sg19
Nsg20
I00
sbsI107
g0
(g8
g2
Ntp8313
Rp8314
(dp8315
g12
Nsg13
(dp8316
sg19
Nsg20
I00
sbsI108
g0
(g8
g2
Ntp8317
Rp8318
(dp8319
g12
Nsg13
(dp8320
sg19
Nsg20
I00
sbsI109
g0
(g8
g2
Ntp8321
Rp8322
(dp8323
g12
Nsg13
(dp8324
sg19
Nsg20
I01
sbsI110
g0
(g8
g2
Ntp8325
Rp8326
(dp8327
g12
Nsg13
(dp8328
sg19
Nsg20
I00
sbsI111
g0
(g8
g2
Ntp8329
Rp8330
(dp8331
g12
Nsg13
(dp8332
sg19
Nsg20
I00
sbsI112
g0
(g8
g2
Ntp8333
Rp8334
(dp8335
g12
Nsg13
(dp8336
sg19
Nsg20
I01
sbsI113
g0
(g8
g2
Ntp8337
Rp8338
(dp8339
g12
Nsg13
(dp8340
sg19
Nsg20
I00
sbsI114
g0
(g8
g2
Ntp8341
Rp8342
(dp8343
g12
Nsg13
(dp8344
sg19
Nsg20
I00
sbsI115
g0
(g8
g2
Ntp8345
Rp8346
(dp8347
g12
Nsg13
(dp8348
sg19
Nsg20
I00
sbsI116
g0
(g8
g2
Ntp8349
Rp8350
(dp8351
g12
Nsg13
(dp8352
sg19
Nsg20
I00
sbsI117
g0
(g8
g2
Ntp8353
Rp8354
(dp8355
g12
Nsg13
(dp8356
sg19
Nsg20
I01
sbsI118
g0
(g8
g2
Ntp8357
Rp8358
(dp8359
g12
Nsg13
(dp8360
sg19
Nsg20
I00
sbsI119
g0
(g8
g2
Ntp8361
Rp8362
(dp8363
g12
Nsg13
(dp8364
sg19
Nsg20
I01
sbsI120
g0
(g8
g2
Ntp8365
Rp8366
(dp8367
g12
Nsg13
(dp8368
sg19
Nsg20
I01
sbsI121
g0
(g8
g2
Ntp8369
Rp8370
(dp8371
g12
Nsg13
(dp8372
sg19
Nsg20
I00
sbsI122
g0
(g8
g2
Ntp8373
Rp8374
(dp8375
g12
Nsg13
(dp8376
sg19
Nsg20
I01
sbsI123
g0
(g8
g2
Ntp8377
Rp8378
(dp8379
g12
Nsg13
(dp8380
sg19
Nsg20
I00
sbsI124
g0
(g8
g2
Ntp8381
Rp8382
(dp8383
g12
Nsg13
(dp8384
sg19
Nsg20
I00
sbsI125
g0
(g8
g2
Ntp8385
Rp8386
(dp8387
g12
Nsg13
(dp8388
sg19
Nsg20
I00
sbsI126
g0
(g8
g2
Ntp8389
Rp8390
(dp8391
g12
Nsg13
(dp8392
sg19
Nsg20
I00
sbsI127
g0
(g8
g2
Ntp8393
Rp8394
(dp8395
g12
Nsg13
(dp8396
sg19
Nsg20
I00
sbsI128
g0
(g8
g2
Ntp8397
Rp8398
(dp8399
g12
Nsg13
(dp8400
sg19
Nsg20
I00
sbsI129
g0
(g8
g2
Ntp8401
Rp8402
(dp8403
g12
Nsg13
(dp8404
sg19
Nsg20
I00
sbsI130
g0
(g8
g2
Ntp8405
Rp8406
(dp8407
g12
Nsg13
(dp8408
sg19
Nsg20
I00
sbsI131
g0
(g8
g2
Ntp8409
Rp8410
(dp8411
g12
Nsg13
(dp8412
sg19
Nsg20
I01
sbsI132
g0
(g8
g2
Ntp8413
Rp8414
(dp8415
g12
Nsg13
(dp8416
sg19
Nsg20
I00
sbsI133
g0
(g8
g2
Ntp8417
Rp8418
(dp8419
g12
Nsg13
(dp8420
sg19
Nsg20
I00
sbsI134
g0
(g8
g2
Ntp8421
Rp8422
(dp8423
g12
Nsg13
(dp8424
sg19
Nsg20
I00
sbsI135
g0
(g8
g2
Ntp8425
Rp8426
(dp8427
g12
Nsg13
(dp8428
sg19
Nsg20
I00
sbsI136
g0
(g8
g2
Ntp8429
Rp8430
(dp8431
g12
Nsg13
(dp8432
sg19
Nsg20
I00
sbsI137
g0
(g8
g2
Ntp8433
Rp8434
(dp8435
g12
Nsg13
(dp8436
sg19
Nsg20
I00
sbsI138
g0
(g8
g2
Ntp8437
Rp8438
(dp8439
g12
Nsg13
(dp8440
sg19
Nsg20
I00
sbsI139
g0
(g8
g2
Ntp8441
Rp8442
(dp8443
g12
Nsg13
(dp8444
sg19
Nsg20
I00
sbsI140
g0
(g8
g2
Ntp8445
Rp8446
(dp8447
g12
Nsg13
(dp8448
sg19
Nsg20
I00
sbsI141
g0
(g8
g2
Ntp8449
Rp8450
(dp8451
g12
Nsg13
(dp8452
sg19
Nsg20
I01
sbsI142
g0
(g8
g2
Ntp8453
Rp8454
(dp8455
g12
Nsg13
(dp8456
sg19
Nsg20
I01
sbsI144
g0
(g8
g2
Ntp8457
Rp8458
(dp8459
g12
Nsg13
(dp8460
sg19
Nsg20
I00
sbsI145
g0
(g8
g2
Ntp8461
Rp8462
(dp8463
g12
Nsg13
(dp8464
sg19
Nsg20
I00
sbsI146
g0
(g8
g2
Ntp8465
Rp8466
(dp8467
g12
Nsg13
(dp8468
sg19
Nsg20
I00
sbsI147
g0
(g8
g2
Ntp8469
Rp8470
(dp8471
g12
Nsg13
(dp8472
sg19
Nsg20
I00
sbsI148
g0
(g8
g2
Ntp8473
Rp8474
(dp8475
g12
Nsg13
(dp8476
sg19
Nsg20
I00
sbsI149
g0
(g8
g2
Ntp8477
Rp8478
(dp8479
g12
Nsg13
(dp8480
sg19
Nsg20
I00
sbsI150
g0
(g8
g2
Ntp8481
Rp8482
(dp8483
g12
Nsg13
(dp8484
sg19
Nsg20
I00
sbsI151
g0
(g8
g2
Ntp8485
Rp8486
(dp8487
g12
Nsg13
(dp8488
sg19
Nsg20
I00
sbsI152
g0
(g8
g2
Ntp8489
Rp8490
(dp8491
g12
Nsg13
(dp8492
sg19
Nsg20
I00
sbsI153
g0
(g8
g2
Ntp8493
Rp8494
(dp8495
g12
Nsg13
(dp8496
sg19
Nsg20
I00
sbsI154
g0
(g8
g2
Ntp8497
Rp8498
(dp8499
g12
Nsg13
(dp8500
sg19
Nsg20
I01
sbsI157
g0
(g8
g2
Ntp8501
Rp8502
(dp8503
g12
Nsg13
(dp8504
sg19
Nsg20
I00
sbsI160
g0
(g8
g2
Ntp8505
Rp8506
(dp8507
g12
Nsg13
(dp8508
sg19
Nsg20
I00
sbsI161
g0
(g8
g2
Ntp8509
Rp8510
(dp8511
g12
Nsg13
(dp8512
sg19
Nsg20
I00
sbsI162
g0
(g8
g2
Ntp8513
Rp8514
(dp8515
g12
Nsg13
(dp8516
sg19
Nsg20
I00
sbsI168
g0
(g8
g2
Ntp8517
Rp8518
(dp8519
g12
Nsg13
(dp8520
sg19
Nsg20
I00
sbsI169
g0
(g8
g2
Ntp8521
Rp8522
(dp8523
g12
Nsg13
(dp8524
sg19
Nsg20
I01
sbsI170
g0
(g8
g2
Ntp8525
Rp8526
(dp8527
g12
Nsg13
(dp8528
sg19
Nsg20
I01
sbsI172
g0
(g8
g2
Ntp8529
Rp8530
(dp8531
g12
Nsg13
(dp8532
sg19
Nsg20
I00
sbsI184
g0
(g8
g2
Ntp8533
Rp8534
(dp8535
g12
Nsg13
(dp8536
sg19
Nsg20
I00
sbsI189
g0
(g8
g2
Ntp8537
Rp8538
(dp8539
g12
Nsg13
(dp8540
sg19
Nsg20
I00
sbssg19
I36
sg20
Nsbag0
(g8
g2
Ntp8541
Rp8542
(dp8543
g12
I00
sg13
(dp8544
I0
g0
(g8
g2
Ntp8545
Rp8546
(dp8547
g12
Nsg13
(dp8548
sg19
Nsg20
I00
sbsI1
g0
(g8
g2
Ntp8549
Rp8550
(dp8551
g12
Nsg13
(dp8552
sg19
Nsg20
I00
sbsI2
g0
(g8
g2
Ntp8553
Rp8554
(dp8555
g12
Nsg13
(dp8556
sg19
Nsg20
I00
sbsI3
g0
(g8
g2
Ntp8557
Rp8558
(dp8559
g12
Nsg13
(dp8560
sg19
Nsg20
I00
sbsI4
g0
(g8
g2
Ntp8561
Rp8562
(dp8563
g12
Nsg13
(dp8564
sg19
Nsg20
I01
sbsI5
g0
(g8
g2
Ntp8565
Rp8566
(dp8567
g12
Nsg13
(dp8568
sg19
Nsg20
I01
sbsI6
g0
(g8
g2
Ntp8569
Rp8570
(dp8571
g12
Nsg13
(dp8572
sg19
Nsg20
I01
sbsI7
g0
(g8
g2
Ntp8573
Rp8574
(dp8575
g12
Nsg13
(dp8576
sg19
Nsg20
I01
sbsI8
g0
(g8
g2
Ntp8577
Rp8578
(dp8579
g12
Nsg13
(dp8580
sg19
Nsg20
I01
sbsI9
g0
(g8
g2
Ntp8581
Rp8582
(dp8583
g12
Nsg13
(dp8584
sg19
Nsg20
I01
sbsI10
g0
(g8
g2
Ntp8585
Rp8586
(dp8587
g12
Nsg13
(dp8588
sg19
Nsg20
I00
sbsI11
g0
(g8
g2
Ntp8589
Rp8590
(dp8591
g12
Nsg13
(dp8592
sg19
Nsg20
I01
sbsI12
g0
(g8
g2
Ntp8593
Rp8594
(dp8595
g12
Nsg13
(dp8596
sg19
Nsg20
I01
sbsI13
g0
(g8
g2
Ntp8597
Rp8598
(dp8599
g12
Nsg13
(dp8600
sg19
Nsg20
I01
sbsI14
g0
(g8
g2
Ntp8601
Rp8602
(dp8603
g12
Nsg13
(dp8604
sg19
Nsg20
I01
sbssg19
I43
sg20
Nsbag0
(g8
g2
Ntp8605
Rp8606
(dp8607
g12
I01
sg13
(dp8608
I0
g0
(g8
g2
Ntp8609
Rp8610
(dp8611
g12
Nsg13
(dp8612
sg19
Nsg20
I01
sbsI1
g0
(g8
g2
Ntp8613
Rp8614
(dp8615
g12
Nsg13
(dp8616
sg19
Nsg20
I01
sbsI2
g0
(g8
g2
Ntp8617
Rp8618
(dp8619
g12
Nsg13
(dp8620
sg19
Nsg20
I01
sbsI3
g0
(g8
g2
Ntp8621
Rp8622
(dp8623
g12
Nsg13
(dp8624
sg19
Nsg20
I01
sbsI4
g0
(g8
g2
Ntp8625
Rp8626
(dp8627
g12
Nsg13
(dp8628
sg19
Nsg20
I01
sbsI5
g0
(g8
g2
Ntp8629
Rp8630
(dp8631
g12
Nsg13
(dp8632
sg19
Nsg20
I01
sbsI6
g0
(g8
g2
Ntp8633
Rp8634
(dp8635
g12
Nsg13
(dp8636
sg19
Nsg20
I01
sbsI7
g0
(g8
g2
Ntp8637
Rp8638
(dp8639
g12
Nsg13
(dp8640
sg19
Nsg20
I01
sbsI8
g0
(g8
g2
Ntp8641
Rp8642
(dp8643
g12
Nsg13
(dp8644
sg19
Nsg20
I01
sbsI9
g0
(g8
g2
Ntp8645
Rp8646
(dp8647
g12
Nsg13
(dp8648
sg19
Nsg20
I01
sbsI10
g0
(g8
g2
Ntp8649
Rp8650
(dp8651
g12
Nsg13
(dp8652
sg19
Nsg20
I01
sbsI11
g0
(g8
g2
Ntp8653
Rp8654
(dp8655
g12
Nsg13
(dp8656
sg19
Nsg20
I01
sbsI12
g0
(g8
g2
Ntp8657
Rp8658
(dp8659
g12
Nsg13
(dp8660
sg19
Nsg20
I00
sbsI13
g0
(g8
g2
Ntp8661
Rp8662
(dp8663
g12
Nsg13
(dp8664
sg19
Nsg20
I01
sbsI14
g0
(g8
g2
Ntp8665
Rp8666
(dp8667
g12
Nsg13
(dp8668
sg19
Nsg20
I01
sbsI15
g0
(g8
g2
Ntp8669
Rp8670
(dp8671
g12
Nsg13
(dp8672
sg19
Nsg20
I01
sbsI16
g0
(g8
g2
Ntp8673
Rp8674
(dp8675
g12
Nsg13
(dp8676
sg19
Nsg20
I01
sbsI17
g0
(g8
g2
Ntp8677
Rp8678
(dp8679
g12
Nsg13
(dp8680
sg19
Nsg20
I00
sbsI18
g0
(g8
g2
Ntp8681
Rp8682
(dp8683
g12
Nsg13
(dp8684
sg19
Nsg20
I01
sbsI19
g0
(g8
g2
Ntp8685
Rp8686
(dp8687
g12
Nsg13
(dp8688
sg19
Nsg20
I01
sbsI20
g0
(g8
g2
Ntp8689
Rp8690
(dp8691
g12
Nsg13
(dp8692
sg19
Nsg20
I01
sbsI21
g0
(g8
g2
Ntp8693
Rp8694
(dp8695
g12
Nsg13
(dp8696
sg19
Nsg20
I01
sbsI22
g0
(g8
g2
Ntp8697
Rp8698
(dp8699
g12
Nsg13
(dp8700
sg19
Nsg20
I01
sbsI23
g0
(g8
g2
Ntp8701
Rp8702
(dp8703
g12
Nsg13
(dp8704
sg19
Nsg20
I01
sbsI24
g0
(g8
g2
Ntp8705
Rp8706
(dp8707
g12
Nsg13
(dp8708
sg19
Nsg20
I01
sbsI25
g0
(g8
g2
Ntp8709
Rp8710
(dp8711
g12
Nsg13
(dp8712
sg19
Nsg20
I01
sbsI26
g0
(g8
g2
Ntp8713
Rp8714
(dp8715
g12
Nsg13
(dp8716
sg19
Nsg20
I01
sbsI27
g0
(g8
g2
Ntp8717
Rp8718
(dp8719
g12
Nsg13
(dp8720
sg19
Nsg20
I01
sbsI28
g0
(g8
g2
Ntp8721
Rp8722
(dp8723
g12
Nsg13
(dp8724
sg19
Nsg20
I01
sbsI29
g0
(g8
g2
Ntp8725
Rp8726
(dp8727
g12
Nsg13
(dp8728
sg19
Nsg20
I01
sbsI30
g0
(g8
g2
Ntp8729
Rp8730
(dp8731
g12
Nsg13
(dp8732
sg19
Nsg20
I01
sbsI31
g0
(g8
g2
Ntp8733
Rp8734
(dp8735
g12
Nsg13
(dp8736
sg19
Nsg20
I01
sbsI32
g0
(g8
g2
Ntp8737
Rp8738
(dp8739
g12
Nsg13
(dp8740
sg19
Nsg20
I01
sbsI33
g0
(g8
g2
Ntp8741
Rp8742
(dp8743
g12
Nsg13
(dp8744
sg19
Nsg20
I01
sbsI34
g0
(g8
g2
Ntp8745
Rp8746
(dp8747
g12
Nsg13
(dp8748
sg19
Nsg20
I01
sbsI35
g0
(g8
g2
Ntp8749
Rp8750
(dp8751
g12
Nsg13
(dp8752
sg19
Nsg20
I01
sbsI36
g0
(g8
g2
Ntp8753
Rp8754
(dp8755
g12
Nsg13
(dp8756
sg19
Nsg20
I01
sbsI37
g0
(g8
g2
Ntp8757
Rp8758
(dp8759
g12
Nsg13
(dp8760
sg19
Nsg20
I01
sbsI38
g0
(g8
g2
Ntp8761
Rp8762
(dp8763
g12
Nsg13
(dp8764
sg19
Nsg20
I01
sbsI39
g0
(g8
g2
Ntp8765
Rp8766
(dp8767
g12
Nsg13
(dp8768
sg19
Nsg20
I01
sbsI40
g0
(g8
g2
Ntp8769
Rp8770
(dp8771
g12
Nsg13
(dp8772
sg19
Nsg20
I01
sbsI41
g0
(g8
g2
Ntp8773
Rp8774
(dp8775
g12
Nsg13
(dp8776
sg19
Nsg20
I01
sbsI42
g0
(g8
g2
Ntp8777
Rp8778
(dp8779
g12
Nsg13
(dp8780
sg19
Nsg20
I01
sbsI43
g0
(g8
g2
Ntp8781
Rp8782
(dp8783
g12
Nsg13
(dp8784
sg19
Nsg20
I01
sbsI44
g0
(g8
g2
Ntp8785
Rp8786
(dp8787
g12
Nsg13
(dp8788
sg19
Nsg20
I01
sbsI45
g0
(g8
g2
Ntp8789
Rp8790
(dp8791
g12
Nsg13
(dp8792
sg19
Nsg20
I01
sbsI46
g0
(g8
g2
Ntp8793
Rp8794
(dp8795
g12
Nsg13
(dp8796
sg19
Nsg20
I01
sbsI47
g0
(g8
g2
Ntp8797
Rp8798
(dp8799
g12
Nsg13
(dp8800
sg19
Nsg20
I01
sbsI48
g0
(g8
g2
Ntp8801
Rp8802
(dp8803
g12
Nsg13
(dp8804
sg19
Nsg20
I01
sbsI49
g0
(g8
g2
Ntp8805
Rp8806
(dp8807
g12
Nsg13
(dp8808
sg19
Nsg20
I01
sbsI50
g0
(g8
g2
Ntp8809
Rp8810
(dp8811
g12
Nsg13
(dp8812
sg19
Nsg20
I01
sbsI51
g0
(g8
g2
Ntp8813
Rp8814
(dp8815
g12
Nsg13
(dp8816
sg19
Nsg20
I01
sbsI52
g0
(g8
g2
Ntp8817
Rp8818
(dp8819
g12
Nsg13
(dp8820
sg19
Nsg20
I01
sbsI53
g0
(g8
g2
Ntp8821
Rp8822
(dp8823
g12
Nsg13
(dp8824
sg19
Nsg20
I01
sbsI54
g0
(g8
g2
Ntp8825
Rp8826
(dp8827
g12
Nsg13
(dp8828
sg19
Nsg20
I01
sbsI55
g0
(g8
g2
Ntp8829
Rp8830
(dp8831
g12
Nsg13
(dp8832
sg19
Nsg20
I01
sbsI56
g0
(g8
g2
Ntp8833
Rp8834
(dp8835
g12
Nsg13
(dp8836
sg19
Nsg20
I01
sbsI57
g0
(g8
g2
Ntp8837
Rp8838
(dp8839
g12
Nsg13
(dp8840
sg19
Nsg20
I01
sbsI58
g0
(g8
g2
Ntp8841
Rp8842
(dp8843
g12
Nsg13
(dp8844
sg19
Nsg20
I01
sbsI59
g0
(g8
g2
Ntp8845
Rp8846
(dp8847
g12
Nsg13
(dp8848
sg19
Nsg20
I01
sbsI60
g0
(g8
g2
Ntp8849
Rp8850
(dp8851
g12
Nsg13
(dp8852
sg19
Nsg20
I01
sbsI61
g0
(g8
g2
Ntp8853
Rp8854
(dp8855
g12
Nsg13
(dp8856
sg19
Nsg20
I01
sbsI62
g0
(g8
g2
Ntp8857
Rp8858
(dp8859
g12
Nsg13
(dp8860
sg19
Nsg20
I01
sbsI63
g0
(g8
g2
Ntp8861
Rp8862
(dp8863
g12
Nsg13
(dp8864
sg19
Nsg20
I01
sbsI64
g0
(g8
g2
Ntp8865
Rp8866
(dp8867
g12
Nsg13
(dp8868
sg19
Nsg20
I01
sbsI65
g0
(g8
g2
Ntp8869
Rp8870
(dp8871
g12
Nsg13
(dp8872
sg19
Nsg20
I01
sbsI66
g0
(g8
g2
Ntp8873
Rp8874
(dp8875
g12
Nsg13
(dp8876
sg19
Nsg20
I01
sbsI67
g0
(g8
g2
Ntp8877
Rp8878
(dp8879
g12
Nsg13
(dp8880
sg19
Nsg20
I01
sbsI68
g0
(g8
g2
Ntp8881
Rp8882
(dp8883
g12
Nsg13
(dp8884
sg19
Nsg20
I01
sbsI69
g0
(g8
g2
Ntp8885
Rp8886
(dp8887
g12
Nsg13
(dp8888
sg19
Nsg20
I01
sbsI70
g0
(g8
g2
Ntp8889
Rp8890
(dp8891
g12
Nsg13
(dp8892
sg19
Nsg20
I01
sbsI71
g0
(g8
g2
Ntp8893
Rp8894
(dp8895
g12
Nsg13
(dp8896
sg19
Nsg20
I01
sbsI72
g0
(g8
g2
Ntp8897
Rp8898
(dp8899
g12
Nsg13
(dp8900
sg19
Nsg20
I01
sbsI73
g0
(g8
g2
Ntp8901
Rp8902
(dp8903
g12
Nsg13
(dp8904
sg19
Nsg20
I01
sbsI74
g0
(g8
g2
Ntp8905
Rp8906
(dp8907
g12
Nsg13
(dp8908
sg19
Nsg20
I01
sbsI75
g0
(g8
g2
Ntp8909
Rp8910
(dp8911
g12
Nsg13
(dp8912
sg19
Nsg20
I01
sbsI76
g0
(g8
g2
Ntp8913
Rp8914
(dp8915
g12
Nsg13
(dp8916
sg19
Nsg20
I01
sbsI77
g0
(g8
g2
Ntp8917
Rp8918
(dp8919
g12
Nsg13
(dp8920
sg19
Nsg20
I01
sbsI78
g0
(g8
g2
Ntp8921
Rp8922
(dp8923
g12
Nsg13
(dp8924
sg19
Nsg20
I01
sbsI79
g0
(g8
g2
Ntp8925
Rp8926
(dp8927
g12
Nsg13
(dp8928
sg19
Nsg20
I01
sbsI80
g0
(g8
g2
Ntp8929
Rp8930
(dp8931
g12
Nsg13
(dp8932
sg19
Nsg20
I01
sbsI81
g0
(g8
g2
Ntp8933
Rp8934
(dp8935
g12
Nsg13
(dp8936
sg19
Nsg20
I01
sbsI82
g0
(g8
g2
Ntp8937
Rp8938
(dp8939
g12
Nsg13
(dp8940
sg19
Nsg20
I01
sbsI83
g0
(g8
g2
Ntp8941
Rp8942
(dp8943
g12
Nsg13
(dp8944
sg19
Nsg20
I01
sbsI84
g0
(g8
g2
Ntp8945
Rp8946
(dp8947
g12
Nsg13
(dp8948
sg19
Nsg20
I01
sbsI85
g0
(g8
g2
Ntp8949
Rp8950
(dp8951
g12
Nsg13
(dp8952
sg19
Nsg20
I01
sbsI86
g0
(g8
g2
Ntp8953
Rp8954
(dp8955
g12
Nsg13
(dp8956
sg19
Nsg20
I01
sbsI87
g0
(g8
g2
Ntp8957
Rp8958
(dp8959
g12
Nsg13
(dp8960
sg19
Nsg20
I01
sbsI88
g0
(g8
g2
Ntp8961
Rp8962
(dp8963
g12
Nsg13
(dp8964
sg19
Nsg20
I01
sbsI89
g0
(g8
g2
Ntp8965
Rp8966
(dp8967
g12
Nsg13
(dp8968
sg19
Nsg20
I01
sbsI90
g0
(g8
g2
Ntp8969
Rp8970
(dp8971
g12
Nsg13
(dp8972
sg19
Nsg20
I01
sbsI91
g0
(g8
g2
Ntp8973
Rp8974
(dp8975
g12
Nsg13
(dp8976
sg19
Nsg20
I01
sbsI92
g0
(g8
g2
Ntp8977
Rp8978
(dp8979
g12
Nsg13
(dp8980
sg19
Nsg20
I00
sbsI93
g0
(g8
g2
Ntp8981
Rp8982
(dp8983
g12
Nsg13
(dp8984
sg19
Nsg20
I01
sbsI94
g0
(g8
g2
Ntp8985
Rp8986
(dp8987
g12
Nsg13
(dp8988
sg19
Nsg20
I01
sbsI95
g0
(g8
g2
Ntp8989
Rp8990
(dp8991
g12
Nsg13
(dp8992
sg19
Nsg20
I01
sbsI96
g0
(g8
g2
Ntp8993
Rp8994
(dp8995
g12
Nsg13
(dp8996
sg19
Nsg20
I01
sbsI97
g0
(g8
g2
Ntp8997
Rp8998
(dp8999
g12
Nsg13
(dp9000
sg19
Nsg20
I01
sbsI98
g0
(g8
g2
Ntp9001
Rp9002
(dp9003
g12
Nsg13
(dp9004
sg19
Nsg20
I01
sbsI99
g0
(g8
g2
Ntp9005
Rp9006
(dp9007
g12
Nsg13
(dp9008
sg19
Nsg20
I01
sbsI100
g0
(g8
g2
Ntp9009
Rp9010
(dp9011
g12
Nsg13
(dp9012
sg19
Nsg20
I00
sbsI101
g0
(g8
g2
Ntp9013
Rp9014
(dp9015
g12
Nsg13
(dp9016
sg19
Nsg20
I01
sbsI102
g0
(g8
g2
Ntp9017
Rp9018
(dp9019
g12
Nsg13
(dp9020
sg19
Nsg20
I00
sbsI103
g0
(g8
g2
Ntp9021
Rp9022
(dp9023
g12
Nsg13
(dp9024
sg19
Nsg20
I00
sbsI104
g0
(g8
g2
Ntp9025
Rp9026
(dp9027
g12
Nsg13
(dp9028
sg19
Nsg20
I01
sbsI105
g0
(g8
g2
Ntp9029
Rp9030
(dp9031
g12
Nsg13
(dp9032
sg19
Nsg20
I01
sbsI106
g0
(g8
g2
Ntp9033
Rp9034
(dp9035
g12
Nsg13
(dp9036
sg19
Nsg20
I01
sbsI107
g0
(g8
g2
Ntp9037
Rp9038
(dp9039
g12
Nsg13
(dp9040
sg19
Nsg20
I00
sbsI108
g0
(g8
g2
Ntp9041
Rp9042
(dp9043
g12
Nsg13
(dp9044
sg19
Nsg20
I01
sbsI109
g0
(g8
g2
Ntp9045
Rp9046
(dp9047
g12
Nsg13
(dp9048
sg19
Nsg20
I01
sbsI110
g0
(g8
g2
Ntp9049
Rp9050
(dp9051
g12
Nsg13
(dp9052
sg19
Nsg20
I01
sbsI111
g0
(g8
g2
Ntp9053
Rp9054
(dp9055
g12
Nsg13
(dp9056
sg19
Nsg20
I01
sbsI112
g0
(g8
g2
Ntp9057
Rp9058
(dp9059
g12
Nsg13
(dp9060
sg19
Nsg20
I01
sbsI113
g0
(g8
g2
Ntp9061
Rp9062
(dp9063
g12
Nsg13
(dp9064
sg19
Nsg20
I00
sbsI114
g0
(g8
g2
Ntp9065
Rp9066
(dp9067
g12
Nsg13
(dp9068
sg19
Nsg20
I01
sbsI115
g0
(g8
g2
Ntp9069
Rp9070
(dp9071
g12
Nsg13
(dp9072
sg19
Nsg20
I00
sbsI116
g0
(g8
g2
Ntp9073
Rp9074
(dp9075
g12
Nsg13
(dp9076
sg19
Nsg20
I00
sbsI117
g0
(g8
g2
Ntp9077
Rp9078
(dp9079
g12
Nsg13
(dp9080
sg19
Nsg20
I01
sbsI118
g0
(g8
g2
Ntp9081
Rp9082
(dp9083
g12
Nsg13
(dp9084
sg19
Nsg20
I00
sbsI119
g0
(g8
g2
Ntp9085
Rp9086
(dp9087
g12
Nsg13
(dp9088
sg19
Nsg20
I01
sbsI120
g0
(g8
g2
Ntp9089
Rp9090
(dp9091
g12
Nsg13
(dp9092
sg19
Nsg20
I01
sbsI121
g0
(g8
g2
Ntp9093
Rp9094
(dp9095
g12
Nsg13
(dp9096
sg19
Nsg20
I00
sbsI122
g0
(g8
g2
Ntp9097
Rp9098
(dp9099
g12
Nsg13
(dp9100
sg19
Nsg20
I01
sbsI123
g0
(g8
g2
Ntp9101
Rp9102
(dp9103
g12
Nsg13
(dp9104
sg19
Nsg20
I00
sbsI124
g0
(g8
g2
Ntp9105
Rp9106
(dp9107
g12
Nsg13
(dp9108
sg19
Nsg20
I00
sbsI125
g0
(g8
g2
Ntp9109
Rp9110
(dp9111
g12
Nsg13
(dp9112
sg19
Nsg20
I00
sbsI126
g0
(g8
g2
Ntp9113
Rp9114
(dp9115
g12
Nsg13
(dp9116
sg19
Nsg20
I00
sbsI127
g0
(g8
g2
Ntp9117
Rp9118
(dp9119
g12
Nsg13
(dp9120
sg19
Nsg20
I00
sbsI128
g0
(g8
g2
Ntp9121
Rp9122
(dp9123
g12
Nsg13
(dp9124
sg19
Nsg20
I00
sbsI129
g0
(g8
g2
Ntp9125
Rp9126
(dp9127
g12
Nsg13
(dp9128
sg19
Nsg20
I01
sbsI130
g0
(g8
g2
Ntp9129
Rp9130
(dp9131
g12
Nsg13
(dp9132
sg19
Nsg20
I01
sbsI131
g0
(g8
g2
Ntp9133
Rp9134
(dp9135
g12
Nsg13
(dp9136
sg19
Nsg20
I01
sbsI132
g0
(g8
g2
Ntp9137
Rp9138
(dp9139
g12
Nsg13
(dp9140
sg19
Nsg20
I00
sbsI133
g0
(g8
g2
Ntp9141
Rp9142
(dp9143
g12
Nsg13
(dp9144
sg19
Nsg20
I00
sbsI134
g0
(g8
g2
Ntp9145
Rp9146
(dp9147
g12
Nsg13
(dp9148
sg19
Nsg20
I00
sbsI135
g0
(g8
g2
Ntp9149
Rp9150
(dp9151
g12
Nsg13
(dp9152
sg19
Nsg20
I00
sbsI136
g0
(g8
g2
Ntp9153
Rp9154
(dp9155
g12
Nsg13
(dp9156
sg19
Nsg20
I00
sbsI137
g0
(g8
g2
Ntp9157
Rp9158
(dp9159
g12
Nsg13
(dp9160
sg19
Nsg20
I00
sbsI138
g0
(g8
g2
Ntp9161
Rp9162
(dp9163
g12
Nsg13
(dp9164
sg19
Nsg20
I00
sbsI139
g0
(g8
g2
Ntp9165
Rp9166
(dp9167
g12
Nsg13
(dp9168
sg19
Nsg20
I00
sbsI140
g0
(g8
g2
Ntp9169
Rp9170
(dp9171
g12
Nsg13
(dp9172
sg19
Nsg20
I00
sbsI141
g0
(g8
g2
Ntp9173
Rp9174
(dp9175
g12
Nsg13
(dp9176
sg19
Nsg20
I01
sbsI142
g0
(g8
g2
Ntp9177
Rp9178
(dp9179
g12
Nsg13
(dp9180
sg19
Nsg20
I01
sbsI144
g0
(g8
g2
Ntp9181
Rp9182
(dp9183
g12
Nsg13
(dp9184
sg19
Nsg20
I00
sbsI145
g0
(g8
g2
Ntp9185
Rp9186
(dp9187
g12
Nsg13
(dp9188
sg19
Nsg20
I01
sbsI146
g0
(g8
g2
Ntp9189
Rp9190
(dp9191
g12
Nsg13
(dp9192
sg19
Nsg20
I00
sbsI147
g0
(g8
g2
Ntp9193
Rp9194
(dp9195
g12
Nsg13
(dp9196
sg19
Nsg20
I00
sbsI148
g0
(g8
g2
Ntp9197
Rp9198
(dp9199
g12
Nsg13
(dp9200
sg19
Nsg20
I00
sbsI149
g0
(g8
g2
Ntp9201
Rp9202
(dp9203
g12
Nsg13
(dp9204
sg19
Nsg20
I00
sbsI150
g0
(g8
g2
Ntp9205
Rp9206
(dp9207
g12
Nsg13
(dp9208
sg19
Nsg20
I00
sbsI151
g0
(g8
g2
Ntp9209
Rp9210
(dp9211
g12
Nsg13
(dp9212
sg19
Nsg20
I00
sbsI152
g0
(g8
g2
Ntp9213
Rp9214
(dp9215
g12
Nsg13
(dp9216
sg19
Nsg20
I00
sbsI153
g0
(g8
g2
Ntp9217
Rp9218
(dp9219
g12
Nsg13
(dp9220
sg19
Nsg20
I00
sbsI154
g0
(g8
g2
Ntp9221
Rp9222
(dp9223
g12
Nsg13
(dp9224
sg19
Nsg20
I01
sbsI157
g0
(g8
g2
Ntp9225
Rp9226
(dp9227
g12
Nsg13
(dp9228
sg19
Nsg20
I00
sbsI160
g0
(g8
g2
Ntp9229
Rp9230
(dp9231
g12
Nsg13
(dp9232
sg19
Nsg20
I00
sbsI161
g0
(g8
g2
Ntp9233
Rp9234
(dp9235
g12
Nsg13
(dp9236
sg19
Nsg20
I00
sbsI162
g0
(g8
g2
Ntp9237
Rp9238
(dp9239
g12
Nsg13
(dp9240
sg19
Nsg20
I00
sbsI168
g0
(g8
g2
Ntp9241
Rp9242
(dp9243
g12
Nsg13
(dp9244
sg19
Nsg20
I00
sbsI169
g0
(g8
g2
Ntp9245
Rp9246
(dp9247
g12
Nsg13
(dp9248
sg19
Nsg20
I01
sbsI170
g0
(g8
g2
Ntp9249
Rp9250
(dp9251
g12
Nsg13
(dp9252
sg19
Nsg20
I01
sbsI172
g0
(g8
g2
Ntp9253
Rp9254
(dp9255
g12
Nsg13
(dp9256
sg19
Nsg20
I00
sbsI184
g0
(g8
g2
Ntp9257
Rp9258
(dp9259
g12
Nsg13
(dp9260
sg19
Nsg20
I00
sbsI189
g0
(g8
g2
Ntp9261
Rp9262
(dp9263
g12
Nsg13
(dp9264
sg19
Nsg20
I00
sbssg19
I36
sg20
NsbasS'listDblCferWeight'
p9265
(lp9266
F0.5329068960141261
aF0.3127697031659606
aF0.15168174291883757
aF0.11981269907600517
aF0.11560007647949234
aF0.062431528071423076
aF0.1593780567897699
aF0.07680938406914394
aF0.05843281657514846
aF0.07122930238321955
aF0.042988377325408396
aF0.06089282832588969
aF0.03636439917806035
aF0.11661081855438424
aF0.1104560553338911
aF0.06315005360390931
aF0.04671020445097134
aF0.09629028043276304
aF0.04709231590859787
aF0.05262476743381234
aF0.033101045850449845
aF0.038460448072510485
aF0.04016111149291608
aF0.02300989161786675
aF0.02730318455898895
aF0.03305771136310893
asb.